Archive member included because of file (symbol)

c:/program files/gnu tools arm embedded/4.6 2012q4/bin/../lib/gcc/arm-none-eabi/4.6.2/thumb\libgcc.a(_thumb1_case_uqi.o)
                              C:\DOCUME~1\sanjeev\LOCALS~1\Temp\ccubq5cn.o (__gnu_thumb1_case_uqi)
c:/program files/gnu tools arm embedded/4.6 2012q4/bin/../lib/gcc/arm-none-eabi/4.6.2/thumb\libgcc.a(_thumb1_case_uhi.o)
                              C:\DOCUME~1\sanjeev\LOCALS~1\Temp\ccubq5cn.o (__gnu_thumb1_case_uhi)
c:/program files/gnu tools arm embedded/4.6 2012q4/bin/../lib/gcc/arm-none-eabi/4.6.2/thumb\libgcc.a(_udivsi3.o)
                              C:\DOCUME~1\sanjeev\LOCALS~1\Temp\ccubq5cn.o (__aeabi_uidiv)
c:/program files/gnu tools arm embedded/4.6 2012q4/bin/../lib/gcc/arm-none-eabi/4.6.2/thumb\libgcc.a(_divsi3.o)
                              C:\DOCUME~1\sanjeev\LOCALS~1\Temp\ccubq5cn.o (__aeabi_idiv)
c:/program files/gnu tools arm embedded/4.6 2012q4/bin/../lib/gcc/arm-none-eabi/4.6.2/thumb\libgcc.a(_dvmd_tls.o)
                              c:/program files/gnu tools arm embedded/4.6 2012q4/bin/../lib/gcc/arm-none-eabi/4.6.2/thumb\libgcc.a(_udivsi3.o) (__aeabi_idiv0)
c:/program files/gnu tools arm embedded/4.6 2012q4/bin/../lib/gcc/arm-none-eabi/4.6.2/thumb\libgcc.a(_lshrdi3.o)
                              C:\DOCUME~1\sanjeev\LOCALS~1\Temp\ccubq5cn.o (__aeabi_llsr)
c:/program files/gnu tools arm embedded/4.6 2012q4/bin/../lib/gcc/arm-none-eabi/4.6.2/thumb\libgcc.a(_ashrdi3.o)
                              C:\DOCUME~1\sanjeev\LOCALS~1\Temp\ccubq5cn.o (__aeabi_lasr)
c:/program files/gnu tools arm embedded/4.6 2012q4/bin/../lib/gcc/arm-none-eabi/4.6.2/thumb\libgcc.a(_ashldi3.o)
                              C:\DOCUME~1\sanjeev\LOCALS~1\Temp\ccubq5cn.o (__aeabi_llsl)
c:/program files/gnu tools arm embedded/4.6 2012q4/bin/../lib/gcc/arm-none-eabi/4.6.2/thumb\libgcc.a(_aeabi_uldivmod.o)
                              C:\DOCUME~1\sanjeev\LOCALS~1\Temp\ccubq5cn.o (__aeabi_uldivmod)
c:/program files/gnu tools arm embedded/4.6 2012q4/bin/../lib/gcc/arm-none-eabi/4.6.2/thumb\libgcc.a(_muldi3.o)
                              C:\DOCUME~1\sanjeev\LOCALS~1\Temp\ccubq5cn.o (__aeabi_lmul)
c:/program files/gnu tools arm embedded/4.6 2012q4/bin/../lib/gcc/arm-none-eabi/4.6.2/thumb\libgcc.a(_paritysi2.o)
                              C:\DOCUME~1\sanjeev\LOCALS~1\Temp\ccubq5cn.o (__paritysi2)
c:/program files/gnu tools arm embedded/4.6 2012q4/bin/../lib/gcc/arm-none-eabi/4.6.2/thumb\libgcc.a(bpabi.o)
                              c:/program files/gnu tools arm embedded/4.6 2012q4/bin/../lib/gcc/arm-none-eabi/4.6.2/thumb\libgcc.a(_aeabi_uldivmod.o) (__gnu_uldivmod_helper)
c:/program files/gnu tools arm embedded/4.6 2012q4/bin/../lib/gcc/arm-none-eabi/4.6.2/thumb\libgcc.a(_divdi3.o)
                              c:/program files/gnu tools arm embedded/4.6 2012q4/bin/../lib/gcc/arm-none-eabi/4.6.2/thumb\libgcc.a(bpabi.o) (__divdi3)
c:/program files/gnu tools arm embedded/4.6 2012q4/bin/../lib/gcc/arm-none-eabi/4.6.2/thumb\libgcc.a(_udivdi3.o)
                              c:/program files/gnu tools arm embedded/4.6 2012q4/bin/../lib/gcc/arm-none-eabi/4.6.2/thumb\libgcc.a(bpabi.o) (__udivdi3)
c:/program files/gnu tools arm embedded/4.6 2012q4/bin/../lib/gcc/arm-none-eabi/4.6.2/thumb\libgcc.a(_clzsi2.o)
                              c:/program files/gnu tools arm embedded/4.6 2012q4/bin/../lib/gcc/arm-none-eabi/4.6.2/thumb\libgcc.a(_divdi3.o) (__clzsi2)
windows32_realbuild/obj\libconsts.a(const_NaN.o)
                              C:\DOCUME~1\sanjeev\LOCALS~1\Temp\ccubq5cn.o (const_NaN)
windows32_realbuild/obj\libconsts.a(const_inf.o)
                              C:\DOCUME~1\sanjeev\LOCALS~1\Temp\ccubq5cn.o (const_inf)
windows32_realbuild/obj\libconsts.a(const__inf.o)
                              C:\DOCUME~1\sanjeev\LOCALS~1\Temp\ccubq5cn.o (const__inf)
windows32_realbuild/obj\libconsts.a(const__1.o)
                              C:\DOCUME~1\sanjeev\LOCALS~1\Temp\ccubq5cn.o (const__1)
windows32_realbuild/obj\libconsts.a(const__0.o)
                              C:\DOCUME~1\sanjeev\LOCALS~1\Temp\ccubq5cn.o (::const(void))
windows32_realbuild/obj\libconsts.a(const_0.o)
                              C:\DOCUME~1\sanjeev\LOCALS~1\Temp\ccubq5cn.o (const_0)
windows32_realbuild/obj\libconsts.a(const_1.o)
                              C:\DOCUME~1\sanjeev\LOCALS~1\Temp\ccubq5cn.o (const_1)
windows32_realbuild/obj\libconsts.a(const_2.o)
                              C:\DOCUME~1\sanjeev\LOCALS~1\Temp\ccubq5cn.o (const_2)
windows32_realbuild/obj\libconsts.a(const_3.o)
                              C:\DOCUME~1\sanjeev\LOCALS~1\Temp\ccubq5cn.o (const_3)
windows32_realbuild/obj\libconsts.a(const_5.o)
                              C:\DOCUME~1\sanjeev\LOCALS~1\Temp\ccubq5cn.o (const_5)
windows32_realbuild/obj\libconsts.a(const_10.o)
                              C:\DOCUME~1\sanjeev\LOCALS~1\Temp\ccubq5cn.o (const_10)
windows32_realbuild/obj\libconsts.a(const_20.o)
                              C:\DOCUME~1\sanjeev\LOCALS~1\Temp\ccubq5cn.o (const_20)
windows32_realbuild/obj\libconsts.a(const_21.o)
                              C:\DOCUME~1\sanjeev\LOCALS~1\Temp\ccubq5cn.o (const_21)
windows32_realbuild/obj\libconsts.a(const_32.o)
                              C:\DOCUME~1\sanjeev\LOCALS~1\Temp\ccubq5cn.o (const_32)
windows32_realbuild/obj\libconsts.a(const_60.o)
                              C:\DOCUME~1\sanjeev\LOCALS~1\Temp\ccubq5cn.o (const_60)
windows32_realbuild/obj\libconsts.a(const_90.o)
                              C:\DOCUME~1\sanjeev\LOCALS~1\Temp\ccubq5cn.o (const_90)
windows32_realbuild/obj\libconsts.a(const_100.o)
                              C:\DOCUME~1\sanjeev\LOCALS~1\Temp\ccubq5cn.o (const_100)
windows32_realbuild/obj\libconsts.a(const_256.o)
                              C:\DOCUME~1\sanjeev\LOCALS~1\Temp\ccubq5cn.o (const_256)
windows32_realbuild/obj\libconsts.a(const_360.o)
                              C:\DOCUME~1\sanjeev\LOCALS~1\Temp\ccubq5cn.o (const_360)
windows32_realbuild/obj\libconsts.a(const_400.o)
                              C:\DOCUME~1\sanjeev\LOCALS~1\Temp\ccubq5cn.o (const_400)
windows32_realbuild/obj\libconsts.a(const_9000.o)
                              C:\DOCUME~1\sanjeev\LOCALS~1\Temp\ccubq5cn.o (const_9000)
windows32_realbuild/obj\libconsts.a(const_36000.o)
                              C:\DOCUME~1\sanjeev\LOCALS~1\Temp\ccubq5cn.o (const_36000)
windows32_realbuild/obj\libconsts.a(const_100000.o)
                              C:\DOCUME~1\sanjeev\LOCALS~1\Temp\ccubq5cn.o (const_100000)
windows32_realbuild/obj\libconsts.a(const_1e_32.o)
                              C:\DOCUME~1\sanjeev\LOCALS~1\Temp\ccubq5cn.o (const_1e_32)
windows32_realbuild/obj\libconsts.a(const_1e_37.o)
                              C:\DOCUME~1\sanjeev\LOCALS~1\Temp\ccubq5cn.o (const_1e_37)
windows32_realbuild/obj\libconsts.a(const_1e_24.o)
                              C:\DOCUME~1\sanjeev\LOCALS~1\Temp\ccubq5cn.o (const_1e_24)
windows32_realbuild/obj\libconsts.a(const_1e_14.o)
                              C:\DOCUME~1\sanjeev\LOCALS~1\Temp\ccubq5cn.o (const_1e_14)
windows32_realbuild/obj\libconsts.a(const_0_0000005.o)
                              C:\DOCUME~1\sanjeev\LOCALS~1\Temp\ccubq5cn.o (const_0_0000005)
windows32_realbuild/obj\libconsts.a(const_0_0001.o)
                              C:\DOCUME~1\sanjeev\LOCALS~1\Temp\ccubq5cn.o (const_0_0001)
windows32_realbuild/obj\libconsts.a(const_0_1.o)
                              C:\DOCUME~1\sanjeev\LOCALS~1\Temp\ccubq5cn.o (const_0_1)
windows32_realbuild/obj\libconsts.a(const_0_05.o)
                              C:\DOCUME~1\sanjeev\LOCALS~1\Temp\ccubq5cn.o (const_0_05)
windows32_realbuild/obj\libconsts.a(const_0_4.o)
                              C:\DOCUME~1\sanjeev\LOCALS~1\Temp\ccubq5cn.o (const_0_4)
windows32_realbuild/obj\libconsts.a(const_0_5.o)
                              C:\DOCUME~1\sanjeev\LOCALS~1\Temp\ccubq5cn.o (const_0_5)
windows32_realbuild/obj\libconsts.a(const_0_6.o)
                              C:\DOCUME~1\sanjeev\LOCALS~1\Temp\ccubq5cn.o (const_0_6)
windows32_realbuild/obj\libconsts.a(const_0_75.o)
                              C:\DOCUME~1\sanjeev\LOCALS~1\Temp\ccubq5cn.o (const_0_75)
windows32_realbuild/obj\libconsts.a(const_0_9.o)
                              C:\DOCUME~1\sanjeev\LOCALS~1\Temp\ccubq5cn.o (const_0_9)
windows32_realbuild/obj\libconsts.a(const_1on60.o)
                              C:\DOCUME~1\sanjeev\LOCALS~1\Temp\ccubq5cn.o (const_1on60)
windows32_realbuild/obj\libconsts.a(const_9on5.o)
                              C:\DOCUME~1\sanjeev\LOCALS~1\Temp\ccubq5cn.o (const_9on5)
windows32_realbuild/obj\libconsts.a(const_root2on2.o)
                              C:\DOCUME~1\sanjeev\LOCALS~1\Temp\ccubq5cn.o (const_root2on2)
windows32_realbuild/obj\libconsts.a(const_PI.o)
                              C:\DOCUME~1\sanjeev\LOCALS~1\Temp\ccubq5cn.o (const_PI)
windows32_realbuild/obj\libconsts.a(const_2PI.o)
                              C:\DOCUME~1\sanjeev\LOCALS~1\Temp\ccubq5cn.o (const_2PI)
windows32_realbuild/obj\libconsts.a(const_PIon2.o)
                              C:\DOCUME~1\sanjeev\LOCALS~1\Temp\ccubq5cn.o (const_PIon2)
windows32_realbuild/obj\libconsts.a(const_PIon180.o)
                              C:\DOCUME~1\sanjeev\LOCALS~1\Temp\ccubq5cn.o (const_PIon180)
windows32_realbuild/obj\libconsts.a(const_PIon200.o)
                              C:\DOCUME~1\sanjeev\LOCALS~1\Temp\ccubq5cn.o (const_PIon200)
windows32_realbuild/obj\libconsts.a(const_ln2.o)
                              C:\DOCUME~1\sanjeev\LOCALS~1\Temp\ccubq5cn.o (const_ln2)
windows32_realbuild/obj\libconsts.a(const_ln10.o)
                              C:\DOCUME~1\sanjeev\LOCALS~1\Temp\ccubq5cn.o (const_ln10)
windows32_realbuild/obj\libconsts.a(const_2pow64.o)
                              C:\DOCUME~1\sanjeev\LOCALS~1\Temp\ccubq5cn.o (const_2pow64)
windows32_realbuild/obj\libconsts.a(const_randfac.o)
                              C:\DOCUME~1\sanjeev\LOCALS~1\Temp\ccubq5cn.o (const_randfac)
windows32_realbuild/obj\libconsts.a(const_gammaR.o)
                              C:\DOCUME~1\sanjeev\LOCALS~1\Temp\ccubq5cn.o (const_gammaR)
windows32_realbuild/obj\libconsts.a(const_gammaC00.o)
                              C:\DOCUME~1\sanjeev\LOCALS~1\Temp\ccubq5cn.o (const_gammaC00)
windows32_realbuild/obj\libconsts.a(const_gammaC01.o)
                              C:\DOCUME~1\sanjeev\LOCALS~1\Temp\ccubq5cn.o (const_gammaC01)
windows32_realbuild/obj\libconsts.a(const_gammaC02.o)
                              C:\DOCUME~1\sanjeev\LOCALS~1\Temp\ccubq5cn.o (const_gammaC02)
windows32_realbuild/obj\libconsts.a(const_gammaC03.o)
                              C:\DOCUME~1\sanjeev\LOCALS~1\Temp\ccubq5cn.o (const_gammaC03)
windows32_realbuild/obj\libconsts.a(const_gammaC04.o)
                              C:\DOCUME~1\sanjeev\LOCALS~1\Temp\ccubq5cn.o (const_gammaC04)
windows32_realbuild/obj\libconsts.a(const_gammaC05.o)
                              C:\DOCUME~1\sanjeev\LOCALS~1\Temp\ccubq5cn.o (const_gammaC05)
windows32_realbuild/obj\libconsts.a(const_gammaC06.o)
                              C:\DOCUME~1\sanjeev\LOCALS~1\Temp\ccubq5cn.o (const_gammaC06)
windows32_realbuild/obj\libconsts.a(const_gammaC07.o)
                              C:\DOCUME~1\sanjeev\LOCALS~1\Temp\ccubq5cn.o (const_gammaC07)
windows32_realbuild/obj\libconsts.a(const_gammaC08.o)
                              C:\DOCUME~1\sanjeev\LOCALS~1\Temp\ccubq5cn.o (const_gammaC08)
windows32_realbuild/obj\libconsts.a(const_gammaC09.o)
                              C:\DOCUME~1\sanjeev\LOCALS~1\Temp\ccubq5cn.o (const_gammaC09)
windows32_realbuild/obj\libconsts.a(const_gammaC10.o)
                              C:\DOCUME~1\sanjeev\LOCALS~1\Temp\ccubq5cn.o (const_gammaC10)
windows32_realbuild/obj\libconsts.a(const_gammaC11.o)
                              C:\DOCUME~1\sanjeev\LOCALS~1\Temp\ccubq5cn.o (const_gammaC11)
windows32_realbuild/obj\libconsts.a(const_gammaC12.o)
                              C:\DOCUME~1\sanjeev\LOCALS~1\Temp\ccubq5cn.o (const_gammaC12)
windows32_realbuild/obj\libconsts.a(const_gammaC13.o)
                              C:\DOCUME~1\sanjeev\LOCALS~1\Temp\ccubq5cn.o (const_gammaC13)
windows32_realbuild/obj\libconsts.a(const_gammaC14.o)
                              C:\DOCUME~1\sanjeev\LOCALS~1\Temp\ccubq5cn.o (const_gammaC14)
windows32_realbuild/obj\libconsts.a(const_gammaC15.o)
                              C:\DOCUME~1\sanjeev\LOCALS~1\Temp\ccubq5cn.o (const_gammaC15)
windows32_realbuild/obj\libconsts.a(const_gammaC16.o)
                              C:\DOCUME~1\sanjeev\LOCALS~1\Temp\ccubq5cn.o (const_gammaC16)
windows32_realbuild/obj\libconsts.a(const_gammaC17.o)
                              C:\DOCUME~1\sanjeev\LOCALS~1\Temp\ccubq5cn.o (const_gammaC17)
windows32_realbuild/obj\libconsts.a(const_gammaC18.o)
                              C:\DOCUME~1\sanjeev\LOCALS~1\Temp\ccubq5cn.o (const_gammaC18)
windows32_realbuild/obj\libconsts.a(const_gammaC19.o)
                              C:\DOCUME~1\sanjeev\LOCALS~1\Temp\ccubq5cn.o (const_gammaC19)
windows32_realbuild/obj\libconsts.a(const_gammaC20.o)
                              C:\DOCUME~1\sanjeev\LOCALS~1\Temp\ccubq5cn.o (const_gammaC20)
windows32_realbuild/obj\libconsts.a(const_gammaC21.o)
                              C:\DOCUME~1\sanjeev\LOCALS~1\Temp\ccubq5cn.o (const_gammaC21)
windows32_realbuild/obj\libdecNum34s.a(decContext.o)
                              C:\DOCUME~1\sanjeev\LOCALS~1\Temp\ccubq5cn.o (decContextDefault)
windows32_realbuild/obj\libdecNum34s.a(decNumber.o)
                              C:\DOCUME~1\sanjeev\LOCALS~1\Temp\ccubq5cn.o (decNumberToString)
windows32_realbuild/obj\libdecNum34s.a(decimal128.o)
                              C:\DOCUME~1\sanjeev\LOCALS~1\Temp\ccubq5cn.o (decimal128FromNumber)
windows32_realbuild/obj\libdecNum34s.a(decimal64.o)
                              windows32_realbuild/obj\libdecNum34s.a(decimal128.o) (decDigitsToDPD)

Discarded input sections

 .data          0x00000000        0x0 C:\DOCUME~1\sanjeev\LOCALS~1\Temp\ccS0bk9j.o
 .bss           0x00000000        0x0 C:\DOCUME~1\sanjeev\LOCALS~1\Temp\ccS0bk9j.o
 .data          0x00000000        0x0 C:\DOCUME~1\sanjeev\LOCALS~1\Temp\ccubq5cn.o
 .data          0x00000000        0x0 c:/program files/gnu tools arm embedded/4.6 2012q4/bin/../lib/gcc/arm-none-eabi/4.6.2/thumb\libgcc.a(_thumb1_case_uqi.o)
 .bss           0x00000000        0x0 c:/program files/gnu tools arm embedded/4.6 2012q4/bin/../lib/gcc/arm-none-eabi/4.6.2/thumb\libgcc.a(_thumb1_case_uqi.o)
 .data          0x00000000        0x0 c:/program files/gnu tools arm embedded/4.6 2012q4/bin/../lib/gcc/arm-none-eabi/4.6.2/thumb\libgcc.a(_thumb1_case_uhi.o)
 .bss           0x00000000        0x0 c:/program files/gnu tools arm embedded/4.6 2012q4/bin/../lib/gcc/arm-none-eabi/4.6.2/thumb\libgcc.a(_thumb1_case_uhi.o)
 .data          0x00000000        0x0 c:/program files/gnu tools arm embedded/4.6 2012q4/bin/../lib/gcc/arm-none-eabi/4.6.2/thumb\libgcc.a(_udivsi3.o)
 .bss           0x00000000        0x0 c:/program files/gnu tools arm embedded/4.6 2012q4/bin/../lib/gcc/arm-none-eabi/4.6.2/thumb\libgcc.a(_udivsi3.o)
 .data          0x00000000        0x0 c:/program files/gnu tools arm embedded/4.6 2012q4/bin/../lib/gcc/arm-none-eabi/4.6.2/thumb\libgcc.a(_divsi3.o)
 .bss           0x00000000        0x0 c:/program files/gnu tools arm embedded/4.6 2012q4/bin/../lib/gcc/arm-none-eabi/4.6.2/thumb\libgcc.a(_divsi3.o)
 .data          0x00000000        0x0 c:/program files/gnu tools arm embedded/4.6 2012q4/bin/../lib/gcc/arm-none-eabi/4.6.2/thumb\libgcc.a(_dvmd_tls.o)
 .bss           0x00000000        0x0 c:/program files/gnu tools arm embedded/4.6 2012q4/bin/../lib/gcc/arm-none-eabi/4.6.2/thumb\libgcc.a(_dvmd_tls.o)
 .data          0x00000000        0x0 c:/program files/gnu tools arm embedded/4.6 2012q4/bin/../lib/gcc/arm-none-eabi/4.6.2/thumb\libgcc.a(_lshrdi3.o)
 .bss           0x00000000        0x0 c:/program files/gnu tools arm embedded/4.6 2012q4/bin/../lib/gcc/arm-none-eabi/4.6.2/thumb\libgcc.a(_lshrdi3.o)
 .data          0x00000000        0x0 c:/program files/gnu tools arm embedded/4.6 2012q4/bin/../lib/gcc/arm-none-eabi/4.6.2/thumb\libgcc.a(_ashrdi3.o)
 .bss           0x00000000        0x0 c:/program files/gnu tools arm embedded/4.6 2012q4/bin/../lib/gcc/arm-none-eabi/4.6.2/thumb\libgcc.a(_ashrdi3.o)
 .data          0x00000000        0x0 c:/program files/gnu tools arm embedded/4.6 2012q4/bin/../lib/gcc/arm-none-eabi/4.6.2/thumb\libgcc.a(_ashldi3.o)
 .bss           0x00000000        0x0 c:/program files/gnu tools arm embedded/4.6 2012q4/bin/../lib/gcc/arm-none-eabi/4.6.2/thumb\libgcc.a(_ashldi3.o)
 .data          0x00000000        0x0 c:/program files/gnu tools arm embedded/4.6 2012q4/bin/../lib/gcc/arm-none-eabi/4.6.2/thumb\libgcc.a(_aeabi_uldivmod.o)
 .bss           0x00000000        0x0 c:/program files/gnu tools arm embedded/4.6 2012q4/bin/../lib/gcc/arm-none-eabi/4.6.2/thumb\libgcc.a(_aeabi_uldivmod.o)
 .data          0x00000000        0x0 c:/program files/gnu tools arm embedded/4.6 2012q4/bin/../lib/gcc/arm-none-eabi/4.6.2/thumb\libgcc.a(_muldi3.o)
 .bss           0x00000000        0x0 c:/program files/gnu tools arm embedded/4.6 2012q4/bin/../lib/gcc/arm-none-eabi/4.6.2/thumb\libgcc.a(_muldi3.o)
 .data          0x00000000        0x0 c:/program files/gnu tools arm embedded/4.6 2012q4/bin/../lib/gcc/arm-none-eabi/4.6.2/thumb\libgcc.a(_paritysi2.o)
 .bss           0x00000000        0x0 c:/program files/gnu tools arm embedded/4.6 2012q4/bin/../lib/gcc/arm-none-eabi/4.6.2/thumb\libgcc.a(_paritysi2.o)
 .data          0x00000000        0x0 c:/program files/gnu tools arm embedded/4.6 2012q4/bin/../lib/gcc/arm-none-eabi/4.6.2/thumb\libgcc.a(bpabi.o)
 .bss           0x00000000        0x0 c:/program files/gnu tools arm embedded/4.6 2012q4/bin/../lib/gcc/arm-none-eabi/4.6.2/thumb\libgcc.a(bpabi.o)
 .data          0x00000000        0x0 c:/program files/gnu tools arm embedded/4.6 2012q4/bin/../lib/gcc/arm-none-eabi/4.6.2/thumb\libgcc.a(_divdi3.o)
 .bss           0x00000000        0x0 c:/program files/gnu tools arm embedded/4.6 2012q4/bin/../lib/gcc/arm-none-eabi/4.6.2/thumb\libgcc.a(_divdi3.o)
 .ARM.extab     0x00000000        0x0 c:/program files/gnu tools arm embedded/4.6 2012q4/bin/../lib/gcc/arm-none-eabi/4.6.2/thumb\libgcc.a(_divdi3.o)
 .ARM.exidx     0x00000000        0x8 c:/program files/gnu tools arm embedded/4.6 2012q4/bin/../lib/gcc/arm-none-eabi/4.6.2/thumb\libgcc.a(_divdi3.o)
 .data          0x00000000        0x0 c:/program files/gnu tools arm embedded/4.6 2012q4/bin/../lib/gcc/arm-none-eabi/4.6.2/thumb\libgcc.a(_udivdi3.o)
 .bss           0x00000000        0x0 c:/program files/gnu tools arm embedded/4.6 2012q4/bin/../lib/gcc/arm-none-eabi/4.6.2/thumb\libgcc.a(_udivdi3.o)
 .ARM.extab     0x00000000        0x0 c:/program files/gnu tools arm embedded/4.6 2012q4/bin/../lib/gcc/arm-none-eabi/4.6.2/thumb\libgcc.a(_udivdi3.o)
 .ARM.exidx     0x00000000        0x8 c:/program files/gnu tools arm embedded/4.6 2012q4/bin/../lib/gcc/arm-none-eabi/4.6.2/thumb\libgcc.a(_udivdi3.o)
 .data          0x00000000        0x0 c:/program files/gnu tools arm embedded/4.6 2012q4/bin/../lib/gcc/arm-none-eabi/4.6.2/thumb\libgcc.a(_clzsi2.o)
 .bss           0x00000000        0x0 c:/program files/gnu tools arm embedded/4.6 2012q4/bin/../lib/gcc/arm-none-eabi/4.6.2/thumb\libgcc.a(_clzsi2.o)
 .text          0x00000000        0x0 windows32_realbuild/obj\libconsts.a(const_NaN.o)
 .data          0x00000000        0x0 windows32_realbuild/obj\libconsts.a(const_NaN.o)
 .bss           0x00000000        0x0 windows32_realbuild/obj\libconsts.a(const_NaN.o)
 .text          0x00000000        0x0 windows32_realbuild/obj\libconsts.a(const_inf.o)
 .data          0x00000000        0x0 windows32_realbuild/obj\libconsts.a(const_inf.o)
 .bss           0x00000000        0x0 windows32_realbuild/obj\libconsts.a(const_inf.o)
 .text          0x00000000        0x0 windows32_realbuild/obj\libconsts.a(const__inf.o)
 .data          0x00000000        0x0 windows32_realbuild/obj\libconsts.a(const__inf.o)
 .bss           0x00000000        0x0 windows32_realbuild/obj\libconsts.a(const__inf.o)
 .text          0x00000000        0x0 windows32_realbuild/obj\libconsts.a(const__1.o)
 .data          0x00000000        0x0 windows32_realbuild/obj\libconsts.a(const__1.o)
 .bss           0x00000000        0x0 windows32_realbuild/obj\libconsts.a(const__1.o)
 .text          0x00000000        0x0 windows32_realbuild/obj\libconsts.a(const__0.o)
 .data          0x00000000        0x0 windows32_realbuild/obj\libconsts.a(const__0.o)
 .bss           0x00000000        0x0 windows32_realbuild/obj\libconsts.a(const__0.o)
 .text          0x00000000        0x0 windows32_realbuild/obj\libconsts.a(const_0.o)
 .data          0x00000000        0x0 windows32_realbuild/obj\libconsts.a(const_0.o)
 .bss           0x00000000        0x0 windows32_realbuild/obj\libconsts.a(const_0.o)
 .text          0x00000000        0x0 windows32_realbuild/obj\libconsts.a(const_1.o)
 .data          0x00000000        0x0 windows32_realbuild/obj\libconsts.a(const_1.o)
 .bss           0x00000000        0x0 windows32_realbuild/obj\libconsts.a(const_1.o)
 .text          0x00000000        0x0 windows32_realbuild/obj\libconsts.a(const_2.o)
 .data          0x00000000        0x0 windows32_realbuild/obj\libconsts.a(const_2.o)
 .bss           0x00000000        0x0 windows32_realbuild/obj\libconsts.a(const_2.o)
 .text          0x00000000        0x0 windows32_realbuild/obj\libconsts.a(const_3.o)
 .data          0x00000000        0x0 windows32_realbuild/obj\libconsts.a(const_3.o)
 .bss           0x00000000        0x0 windows32_realbuild/obj\libconsts.a(const_3.o)
 .text          0x00000000        0x0 windows32_realbuild/obj\libconsts.a(const_5.o)
 .data          0x00000000        0x0 windows32_realbuild/obj\libconsts.a(const_5.o)
 .bss           0x00000000        0x0 windows32_realbuild/obj\libconsts.a(const_5.o)
 .text          0x00000000        0x0 windows32_realbuild/obj\libconsts.a(const_10.o)
 .data          0x00000000        0x0 windows32_realbuild/obj\libconsts.a(const_10.o)
 .bss           0x00000000        0x0 windows32_realbuild/obj\libconsts.a(const_10.o)
 .text          0x00000000        0x0 windows32_realbuild/obj\libconsts.a(const_20.o)
 .data          0x00000000        0x0 windows32_realbuild/obj\libconsts.a(const_20.o)
 .bss           0x00000000        0x0 windows32_realbuild/obj\libconsts.a(const_20.o)
 .text          0x00000000        0x0 windows32_realbuild/obj\libconsts.a(const_21.o)
 .data          0x00000000        0x0 windows32_realbuild/obj\libconsts.a(const_21.o)
 .bss           0x00000000        0x0 windows32_realbuild/obj\libconsts.a(const_21.o)
 .text          0x00000000        0x0 windows32_realbuild/obj\libconsts.a(const_32.o)
 .data          0x00000000        0x0 windows32_realbuild/obj\libconsts.a(const_32.o)
 .bss           0x00000000        0x0 windows32_realbuild/obj\libconsts.a(const_32.o)
 .text          0x00000000        0x0 windows32_realbuild/obj\libconsts.a(const_60.o)
 .data          0x00000000        0x0 windows32_realbuild/obj\libconsts.a(const_60.o)
 .bss           0x00000000        0x0 windows32_realbuild/obj\libconsts.a(const_60.o)
 .text          0x00000000        0x0 windows32_realbuild/obj\libconsts.a(const_90.o)
 .data          0x00000000        0x0 windows32_realbuild/obj\libconsts.a(const_90.o)
 .bss           0x00000000        0x0 windows32_realbuild/obj\libconsts.a(const_90.o)
 .text          0x00000000        0x0 windows32_realbuild/obj\libconsts.a(const_100.o)
 .data          0x00000000        0x0 windows32_realbuild/obj\libconsts.a(const_100.o)
 .bss           0x00000000        0x0 windows32_realbuild/obj\libconsts.a(const_100.o)
 .text          0x00000000        0x0 windows32_realbuild/obj\libconsts.a(const_256.o)
 .data          0x00000000        0x0 windows32_realbuild/obj\libconsts.a(const_256.o)
 .bss           0x00000000        0x0 windows32_realbuild/obj\libconsts.a(const_256.o)
 .text          0x00000000        0x0 windows32_realbuild/obj\libconsts.a(const_360.o)
 .data          0x00000000        0x0 windows32_realbuild/obj\libconsts.a(const_360.o)
 .bss           0x00000000        0x0 windows32_realbuild/obj\libconsts.a(const_360.o)
 .text          0x00000000        0x0 windows32_realbuild/obj\libconsts.a(const_400.o)
 .data          0x00000000        0x0 windows32_realbuild/obj\libconsts.a(const_400.o)
 .bss           0x00000000        0x0 windows32_realbuild/obj\libconsts.a(const_400.o)
 .text          0x00000000        0x0 windows32_realbuild/obj\libconsts.a(const_9000.o)
 .data          0x00000000        0x0 windows32_realbuild/obj\libconsts.a(const_9000.o)
 .bss           0x00000000        0x0 windows32_realbuild/obj\libconsts.a(const_9000.o)
 .text          0x00000000        0x0 windows32_realbuild/obj\libconsts.a(const_36000.o)
 .data          0x00000000        0x0 windows32_realbuild/obj\libconsts.a(const_36000.o)
 .bss           0x00000000        0x0 windows32_realbuild/obj\libconsts.a(const_36000.o)
 .text          0x00000000        0x0 windows32_realbuild/obj\libconsts.a(const_100000.o)
 .data          0x00000000        0x0 windows32_realbuild/obj\libconsts.a(const_100000.o)
 .bss           0x00000000        0x0 windows32_realbuild/obj\libconsts.a(const_100000.o)
 .text          0x00000000        0x0 windows32_realbuild/obj\libconsts.a(const_1e_32.o)
 .data          0x00000000        0x0 windows32_realbuild/obj\libconsts.a(const_1e_32.o)
 .bss           0x00000000        0x0 windows32_realbuild/obj\libconsts.a(const_1e_32.o)
 .text          0x00000000        0x0 windows32_realbuild/obj\libconsts.a(const_1e_37.o)
 .data          0x00000000        0x0 windows32_realbuild/obj\libconsts.a(const_1e_37.o)
 .bss           0x00000000        0x0 windows32_realbuild/obj\libconsts.a(const_1e_37.o)
 .text          0x00000000        0x0 windows32_realbuild/obj\libconsts.a(const_1e_24.o)
 .data          0x00000000        0x0 windows32_realbuild/obj\libconsts.a(const_1e_24.o)
 .bss           0x00000000        0x0 windows32_realbuild/obj\libconsts.a(const_1e_24.o)
 .text          0x00000000        0x0 windows32_realbuild/obj\libconsts.a(const_1e_14.o)
 .data          0x00000000        0x0 windows32_realbuild/obj\libconsts.a(const_1e_14.o)
 .bss           0x00000000        0x0 windows32_realbuild/obj\libconsts.a(const_1e_14.o)
 .text          0x00000000        0x0 windows32_realbuild/obj\libconsts.a(const_0_0000005.o)
 .data          0x00000000        0x0 windows32_realbuild/obj\libconsts.a(const_0_0000005.o)
 .bss           0x00000000        0x0 windows32_realbuild/obj\libconsts.a(const_0_0000005.o)
 .text          0x00000000        0x0 windows32_realbuild/obj\libconsts.a(const_0_0001.o)
 .data          0x00000000        0x0 windows32_realbuild/obj\libconsts.a(const_0_0001.o)
 .bss           0x00000000        0x0 windows32_realbuild/obj\libconsts.a(const_0_0001.o)
 .text          0x00000000        0x0 windows32_realbuild/obj\libconsts.a(const_0_1.o)
 .data          0x00000000        0x0 windows32_realbuild/obj\libconsts.a(const_0_1.o)
 .bss           0x00000000        0x0 windows32_realbuild/obj\libconsts.a(const_0_1.o)
 .text          0x00000000        0x0 windows32_realbuild/obj\libconsts.a(const_0_05.o)
 .data          0x00000000        0x0 windows32_realbuild/obj\libconsts.a(const_0_05.o)
 .bss           0x00000000        0x0 windows32_realbuild/obj\libconsts.a(const_0_05.o)
 .text          0x00000000        0x0 windows32_realbuild/obj\libconsts.a(const_0_4.o)
 .data          0x00000000        0x0 windows32_realbuild/obj\libconsts.a(const_0_4.o)
 .bss           0x00000000        0x0 windows32_realbuild/obj\libconsts.a(const_0_4.o)
 .text          0x00000000        0x0 windows32_realbuild/obj\libconsts.a(const_0_5.o)
 .data          0x00000000        0x0 windows32_realbuild/obj\libconsts.a(const_0_5.o)
 .bss           0x00000000        0x0 windows32_realbuild/obj\libconsts.a(const_0_5.o)
 .text          0x00000000        0x0 windows32_realbuild/obj\libconsts.a(const_0_6.o)
 .data          0x00000000        0x0 windows32_realbuild/obj\libconsts.a(const_0_6.o)
 .bss           0x00000000        0x0 windows32_realbuild/obj\libconsts.a(const_0_6.o)
 .text          0x00000000        0x0 windows32_realbuild/obj\libconsts.a(const_0_75.o)
 .data          0x00000000        0x0 windows32_realbuild/obj\libconsts.a(const_0_75.o)
 .bss           0x00000000        0x0 windows32_realbuild/obj\libconsts.a(const_0_75.o)
 .text          0x00000000        0x0 windows32_realbuild/obj\libconsts.a(const_0_9.o)
 .data          0x00000000        0x0 windows32_realbuild/obj\libconsts.a(const_0_9.o)
 .bss           0x00000000        0x0 windows32_realbuild/obj\libconsts.a(const_0_9.o)
 .text          0x00000000        0x0 windows32_realbuild/obj\libconsts.a(const_1on60.o)
 .data          0x00000000        0x0 windows32_realbuild/obj\libconsts.a(const_1on60.o)
 .bss           0x00000000        0x0 windows32_realbuild/obj\libconsts.a(const_1on60.o)
 .text          0x00000000        0x0 windows32_realbuild/obj\libconsts.a(const_9on5.o)
 .data          0x00000000        0x0 windows32_realbuild/obj\libconsts.a(const_9on5.o)
 .bss           0x00000000        0x0 windows32_realbuild/obj\libconsts.a(const_9on5.o)
 .text          0x00000000        0x0 windows32_realbuild/obj\libconsts.a(const_root2on2.o)
 .data          0x00000000        0x0 windows32_realbuild/obj\libconsts.a(const_root2on2.o)
 .bss           0x00000000        0x0 windows32_realbuild/obj\libconsts.a(const_root2on2.o)
 .text          0x00000000        0x0 windows32_realbuild/obj\libconsts.a(const_PI.o)
 .data          0x00000000        0x0 windows32_realbuild/obj\libconsts.a(const_PI.o)
 .bss           0x00000000        0x0 windows32_realbuild/obj\libconsts.a(const_PI.o)
 .text          0x00000000        0x0 windows32_realbuild/obj\libconsts.a(const_2PI.o)
 .data          0x00000000        0x0 windows32_realbuild/obj\libconsts.a(const_2PI.o)
 .bss           0x00000000        0x0 windows32_realbuild/obj\libconsts.a(const_2PI.o)
 .text          0x00000000        0x0 windows32_realbuild/obj\libconsts.a(const_PIon2.o)
 .data          0x00000000        0x0 windows32_realbuild/obj\libconsts.a(const_PIon2.o)
 .bss           0x00000000        0x0 windows32_realbuild/obj\libconsts.a(const_PIon2.o)
 .text          0x00000000        0x0 windows32_realbuild/obj\libconsts.a(const_PIon180.o)
 .data          0x00000000        0x0 windows32_realbuild/obj\libconsts.a(const_PIon180.o)
 .bss           0x00000000        0x0 windows32_realbuild/obj\libconsts.a(const_PIon180.o)
 .text          0x00000000        0x0 windows32_realbuild/obj\libconsts.a(const_PIon200.o)
 .data          0x00000000        0x0 windows32_realbuild/obj\libconsts.a(const_PIon200.o)
 .bss           0x00000000        0x0 windows32_realbuild/obj\libconsts.a(const_PIon200.o)
 .text          0x00000000        0x0 windows32_realbuild/obj\libconsts.a(const_ln2.o)
 .data          0x00000000        0x0 windows32_realbuild/obj\libconsts.a(const_ln2.o)
 .bss           0x00000000        0x0 windows32_realbuild/obj\libconsts.a(const_ln2.o)
 .text          0x00000000        0x0 windows32_realbuild/obj\libconsts.a(const_ln10.o)
 .data          0x00000000        0x0 windows32_realbuild/obj\libconsts.a(const_ln10.o)
 .bss           0x00000000        0x0 windows32_realbuild/obj\libconsts.a(const_ln10.o)
 .text          0x00000000        0x0 windows32_realbuild/obj\libconsts.a(const_2pow64.o)
 .data          0x00000000        0x0 windows32_realbuild/obj\libconsts.a(const_2pow64.o)
 .bss           0x00000000        0x0 windows32_realbuild/obj\libconsts.a(const_2pow64.o)
 .text          0x00000000        0x0 windows32_realbuild/obj\libconsts.a(const_randfac.o)
 .data          0x00000000        0x0 windows32_realbuild/obj\libconsts.a(const_randfac.o)
 .bss           0x00000000        0x0 windows32_realbuild/obj\libconsts.a(const_randfac.o)
 .text          0x00000000        0x0 windows32_realbuild/obj\libconsts.a(const_gammaR.o)
 .data          0x00000000        0x0 windows32_realbuild/obj\libconsts.a(const_gammaR.o)
 .bss           0x00000000        0x0 windows32_realbuild/obj\libconsts.a(const_gammaR.o)
 .text          0x00000000        0x0 windows32_realbuild/obj\libconsts.a(const_gammaC00.o)
 .data          0x00000000        0x0 windows32_realbuild/obj\libconsts.a(const_gammaC00.o)
 .bss           0x00000000        0x0 windows32_realbuild/obj\libconsts.a(const_gammaC00.o)
 .text          0x00000000        0x0 windows32_realbuild/obj\libconsts.a(const_gammaC01.o)
 .data          0x00000000        0x0 windows32_realbuild/obj\libconsts.a(const_gammaC01.o)
 .bss           0x00000000        0x0 windows32_realbuild/obj\libconsts.a(const_gammaC01.o)
 .text          0x00000000        0x0 windows32_realbuild/obj\libconsts.a(const_gammaC02.o)
 .data          0x00000000        0x0 windows32_realbuild/obj\libconsts.a(const_gammaC02.o)
 .bss           0x00000000        0x0 windows32_realbuild/obj\libconsts.a(const_gammaC02.o)
 .text          0x00000000        0x0 windows32_realbuild/obj\libconsts.a(const_gammaC03.o)
 .data          0x00000000        0x0 windows32_realbuild/obj\libconsts.a(const_gammaC03.o)
 .bss           0x00000000        0x0 windows32_realbuild/obj\libconsts.a(const_gammaC03.o)
 .text          0x00000000        0x0 windows32_realbuild/obj\libconsts.a(const_gammaC04.o)
 .data          0x00000000        0x0 windows32_realbuild/obj\libconsts.a(const_gammaC04.o)
 .bss           0x00000000        0x0 windows32_realbuild/obj\libconsts.a(const_gammaC04.o)
 .text          0x00000000        0x0 windows32_realbuild/obj\libconsts.a(const_gammaC05.o)
 .data          0x00000000        0x0 windows32_realbuild/obj\libconsts.a(const_gammaC05.o)
 .bss           0x00000000        0x0 windows32_realbuild/obj\libconsts.a(const_gammaC05.o)
 .text          0x00000000        0x0 windows32_realbuild/obj\libconsts.a(const_gammaC06.o)
 .data          0x00000000        0x0 windows32_realbuild/obj\libconsts.a(const_gammaC06.o)
 .bss           0x00000000        0x0 windows32_realbuild/obj\libconsts.a(const_gammaC06.o)
 .text          0x00000000        0x0 windows32_realbuild/obj\libconsts.a(const_gammaC07.o)
 .data          0x00000000        0x0 windows32_realbuild/obj\libconsts.a(const_gammaC07.o)
 .bss           0x00000000        0x0 windows32_realbuild/obj\libconsts.a(const_gammaC07.o)
 .text          0x00000000        0x0 windows32_realbuild/obj\libconsts.a(const_gammaC08.o)
 .data          0x00000000        0x0 windows32_realbuild/obj\libconsts.a(const_gammaC08.o)
 .bss           0x00000000        0x0 windows32_realbuild/obj\libconsts.a(const_gammaC08.o)
 .text          0x00000000        0x0 windows32_realbuild/obj\libconsts.a(const_gammaC09.o)
 .data          0x00000000        0x0 windows32_realbuild/obj\libconsts.a(const_gammaC09.o)
 .bss           0x00000000        0x0 windows32_realbuild/obj\libconsts.a(const_gammaC09.o)
 .text          0x00000000        0x0 windows32_realbuild/obj\libconsts.a(const_gammaC10.o)
 .data          0x00000000        0x0 windows32_realbuild/obj\libconsts.a(const_gammaC10.o)
 .bss           0x00000000        0x0 windows32_realbuild/obj\libconsts.a(const_gammaC10.o)
 .text          0x00000000        0x0 windows32_realbuild/obj\libconsts.a(const_gammaC11.o)
 .data          0x00000000        0x0 windows32_realbuild/obj\libconsts.a(const_gammaC11.o)
 .bss           0x00000000        0x0 windows32_realbuild/obj\libconsts.a(const_gammaC11.o)
 .text          0x00000000        0x0 windows32_realbuild/obj\libconsts.a(const_gammaC12.o)
 .data          0x00000000        0x0 windows32_realbuild/obj\libconsts.a(const_gammaC12.o)
 .bss           0x00000000        0x0 windows32_realbuild/obj\libconsts.a(const_gammaC12.o)
 .text          0x00000000        0x0 windows32_realbuild/obj\libconsts.a(const_gammaC13.o)
 .data          0x00000000        0x0 windows32_realbuild/obj\libconsts.a(const_gammaC13.o)
 .bss           0x00000000        0x0 windows32_realbuild/obj\libconsts.a(const_gammaC13.o)
 .text          0x00000000        0x0 windows32_realbuild/obj\libconsts.a(const_gammaC14.o)
 .data          0x00000000        0x0 windows32_realbuild/obj\libconsts.a(const_gammaC14.o)
 .bss           0x00000000        0x0 windows32_realbuild/obj\libconsts.a(const_gammaC14.o)
 .text          0x00000000        0x0 windows32_realbuild/obj\libconsts.a(const_gammaC15.o)
 .data          0x00000000        0x0 windows32_realbuild/obj\libconsts.a(const_gammaC15.o)
 .bss           0x00000000        0x0 windows32_realbuild/obj\libconsts.a(const_gammaC15.o)
 .text          0x00000000        0x0 windows32_realbuild/obj\libconsts.a(const_gammaC16.o)
 .data          0x00000000        0x0 windows32_realbuild/obj\libconsts.a(const_gammaC16.o)
 .bss           0x00000000        0x0 windows32_realbuild/obj\libconsts.a(const_gammaC16.o)
 .text          0x00000000        0x0 windows32_realbuild/obj\libconsts.a(const_gammaC17.o)
 .data          0x00000000        0x0 windows32_realbuild/obj\libconsts.a(const_gammaC17.o)
 .bss           0x00000000        0x0 windows32_realbuild/obj\libconsts.a(const_gammaC17.o)
 .text          0x00000000        0x0 windows32_realbuild/obj\libconsts.a(const_gammaC18.o)
 .data          0x00000000        0x0 windows32_realbuild/obj\libconsts.a(const_gammaC18.o)
 .bss           0x00000000        0x0 windows32_realbuild/obj\libconsts.a(const_gammaC18.o)
 .text          0x00000000        0x0 windows32_realbuild/obj\libconsts.a(const_gammaC19.o)
 .data          0x00000000        0x0 windows32_realbuild/obj\libconsts.a(const_gammaC19.o)
 .bss           0x00000000        0x0 windows32_realbuild/obj\libconsts.a(const_gammaC19.o)
 .text          0x00000000        0x0 windows32_realbuild/obj\libconsts.a(const_gammaC20.o)
 .data          0x00000000        0x0 windows32_realbuild/obj\libconsts.a(const_gammaC20.o)
 .bss           0x00000000        0x0 windows32_realbuild/obj\libconsts.a(const_gammaC20.o)
 .text          0x00000000        0x0 windows32_realbuild/obj\libconsts.a(const_gammaC21.o)
 .data          0x00000000        0x0 windows32_realbuild/obj\libconsts.a(const_gammaC21.o)
 .bss           0x00000000        0x0 windows32_realbuild/obj\libconsts.a(const_gammaC21.o)
 .data          0x00000000        0x0 windows32_realbuild/obj\libdecNum34s.a(decContext.o)
 .bss           0x00000000        0x0 windows32_realbuild/obj\libdecNum34s.a(decContext.o)
 .data          0x00000000        0x0 windows32_realbuild/obj\libdecNum34s.a(decNumber.o)
 .bss           0x00000000        0x0 windows32_realbuild/obj\libdecNum34s.a(decNumber.o)
 .data          0x00000000        0x0 windows32_realbuild/obj\libdecNum34s.a(decimal128.o)
 .bss           0x00000000        0x0 windows32_realbuild/obj\libdecNum34s.a(decimal128.o)
 .data          0x00000000        0x0 windows32_realbuild/obj\libdecNum34s.a(decimal64.o)
 .bss           0x00000000        0x0 windows32_realbuild/obj\libdecNum34s.a(decimal64.o)

Memory Configuration

Name             Origin             Length             Attributes
volatileram      0x00200000         0x00001000         w !xr
persistentram    0x00300000         0x00000800         w !xr
programflash     0x00100000         0x0001f800         xr
backupflash      0x0011f800         0x00000800         r
cmdtab           0x000f0000         0x00010000         r
*default*        0x00000000         0xffffffff

Linker script and memory map

LOAD C:\DOCUME~1\sanjeev\LOCALS~1\Temp\ccS0bk9j.o
LOAD C:\DOCUME~1\sanjeev\LOCALS~1\Temp\ccubq5cn.o
LOAD c:/program files/gnu tools arm embedded/4.6 2012q4/bin/../lib/gcc/arm-none-eabi/4.6.2/thumb\libgcc.a
LOAD windows32_realbuild/obj\libconsts.a
LOAD windows32_realbuild/obj\libdecNum34s.a

.cmdtab         0x000f0000     0x205a
 *(.cmdtab)
 .cmdtab        0x000f0000     0x205a C:\DOCUME~1\sanjeev\LOCALS~1\Temp\ccubq5cn.o
                0x000f0000                command_info
                0x000f0048                multicmds_ct
                0x000f00b6                argcmds_ct
                0x000f0806                niladics_ct
                0x000f11a2                trifuncs_ct
                0x000f124a                dyfuncs_ct
                0x000f1598                monfuncs_ct
 *(.implicit_consts)

.fixed          0x00100000    0x1ddc0
                0x00100000                . = ALIGN (0x4)
                0x00100000                _sfixed = .
 *(.text*)
 .text          0x00100000       0xf0 C:\DOCUME~1\sanjeev\LOCALS~1\Temp\ccS0bk9j.o
                0x00100068                resetHandler
                0x00100068                entry
 .text          0x001000f0    0x12398 C:\DOCUME~1\sanjeev\LOCALS~1\Temp\ccubq5cn.o
                0x001085c4                __aeabi_unwind_cpp_pr0
                0x001085c6                __aeabi_unwind_cpp_pr1
                0x001085c8                __aeabi_unwind_cpp_pr2
                0x001085ca                LowLevelInit
                0x00108668                xcopy
                0x00108668                memcpy
                0x0011246c                memset
                0x0011246c                xset
 .text.unlikely
                0x00112488      0x51c C:\DOCUME~1\sanjeev\LOCALS~1\Temp\ccubq5cn.o
 .text.startup  0x001129a4     0x1930 C:\DOCUME~1\sanjeev\LOCALS~1\Temp\ccubq5cn.o
                0x001129a4                main
 .text          0x001142d4       0x14 c:/program files/gnu tools arm embedded/4.6 2012q4/bin/../lib/gcc/arm-none-eabi/4.6.2/thumb\libgcc.a(_thumb1_case_uqi.o)
                0x001142d4                __gnu_thumb1_case_uqi
 .text          0x001142e8       0x14 c:/program files/gnu tools arm embedded/4.6 2012q4/bin/../lib/gcc/arm-none-eabi/4.6.2/thumb\libgcc.a(_thumb1_case_uhi.o)
                0x001142e8                __gnu_thumb1_case_uhi
 .text          0x001142fc      0x11c c:/program files/gnu tools arm embedded/4.6 2012q4/bin/../lib/gcc/arm-none-eabi/4.6.2/thumb\libgcc.a(_udivsi3.o)
                0x001142fc                __aeabi_uidiv
                0x001142fc                __udivsi3
                0x001143f8                __aeabi_uidivmod
 .text          0x00114418      0x150 c:/program files/gnu tools arm embedded/4.6 2012q4/bin/../lib/gcc/arm-none-eabi/4.6.2/thumb\libgcc.a(_divsi3.o)
                0x00114418                __divsi3
                0x00114418                __aeabi_idiv
                0x00114548                __aeabi_idivmod
 .text          0x00114568        0x4 c:/program files/gnu tools arm embedded/4.6 2012q4/bin/../lib/gcc/arm-none-eabi/4.6.2/thumb\libgcc.a(_dvmd_tls.o)
                0x00114568                __aeabi_idiv0
                0x00114568                __aeabi_ldiv0
 .text          0x0011456c       0x18 c:/program files/gnu tools arm embedded/4.6 2012q4/bin/../lib/gcc/arm-none-eabi/4.6.2/thumb\libgcc.a(_lshrdi3.o)
                0x0011456c                __lshrdi3
                0x0011456c                __aeabi_llsr
 .text          0x00114584       0x1c c:/program files/gnu tools arm embedded/4.6 2012q4/bin/../lib/gcc/arm-none-eabi/4.6.2/thumb\libgcc.a(_ashrdi3.o)
                0x00114584                __aeabi_lasr
                0x00114584                __ashrdi3
 .text          0x001145a0       0x18 c:/program files/gnu tools arm embedded/4.6 2012q4/bin/../lib/gcc/arm-none-eabi/4.6.2/thumb\libgcc.a(_ashldi3.o)
                0x001145a0                __aeabi_llsl
                0x001145a0                __ashldi3
 .text          0x001145b8       0x3c c:/program files/gnu tools arm embedded/4.6 2012q4/bin/../lib/gcc/arm-none-eabi/4.6.2/thumb\libgcc.a(_aeabi_uldivmod.o)
                0x001145b8                __aeabi_uldivmod
 .text          0x001145f4       0x4c c:/program files/gnu tools arm embedded/4.6 2012q4/bin/../lib/gcc/arm-none-eabi/4.6.2/thumb\libgcc.a(_muldi3.o)
                0x001145f4                __muldi3
                0x001145f4                __aeabi_lmul
 .text          0x00114640       0x20 c:/program files/gnu tools arm embedded/4.6 2012q4/bin/../lib/gcc/arm-none-eabi/4.6.2/thumb\libgcc.a(_paritysi2.o)
                0x00114640                __paritysi2
 .text          0x00114660       0x74 c:/program files/gnu tools arm embedded/4.6 2012q4/bin/../lib/gcc/arm-none-eabi/4.6.2/thumb\libgcc.a(bpabi.o)
                0x00114660                __gnu_ldivmod_helper
                0x0011469c                __gnu_uldivmod_helper
 .text          0x001146d4      0x3c8 c:/program files/gnu tools arm embedded/4.6 2012q4/bin/../lib/gcc/arm-none-eabi/4.6.2/thumb\libgcc.a(_divdi3.o)
                0x001146d4                __divdi3
 .text          0x00114a9c      0x370 c:/program files/gnu tools arm embedded/4.6 2012q4/bin/../lib/gcc/arm-none-eabi/4.6.2/thumb\libgcc.a(_udivdi3.o)
                0x00114a9c                __udivdi3
 .text          0x00114e0c       0x48 c:/program files/gnu tools arm embedded/4.6 2012q4/bin/../lib/gcc/arm-none-eabi/4.6.2/thumb\libgcc.a(_clzsi2.o)
                0x00114e0c                __clzsi2
 .text          0x00114e54       0x6c windows32_realbuild/obj\libdecNum34s.a(decContext.o)
                0x00114e54                decContextDefault
                0x00114eb8                decContextSetStatus
 .text          0x00114ec0     0x3190 windows32_realbuild/obj\libdecNum34s.a(decNumber.o)
                0x00115c28                decNumberToString
                0x00115fb0                decNumberFromString
                0x001162d8                decNumberCopy
                0x00116378                decNumberNormalize
                0x00116588                decNumberMultiply
                0x001166be                decNumberMin
                0x001166f0                decNumberMax
                0x00116722                decNumberCompare
                0x00116b7c                decNumberSubtract
                0x00116bae                decNumberAdd
                0x00116bde                decNumberPlus
                0x00116c22                decNumberMinus
                0x00116c68                decNumberAbs
                0x00117364                decNumberRemainder
                0x00117396                decNumberDivide
                0x001173c8                decNumberSquareRoot
                0x00117bf0                decNumberExp
                0x00117c74                decNumberZero
                0x00117c82                decGetInt
                0x00117f08                decNumberRescale
                0x00117f38                decNumberQuantize
                0x00117f6a                decNumberToIntegralValue
                0x00117fe6                ullint_to_dn
 .text          0x00118050      0x254 windows32_realbuild/obj\libdecNum34s.a(decimal128.o)
                0x00118050                decimal128FromNumber
                0x001181b8                decimal128ToNumber
 .text          0x001182a4      0x40c windows32_realbuild/obj\libdecNum34s.a(decimal64.o)
                0x001182a4                decDigitsToDPD
                0x001183d8                decimal64FromNumber
                0x00118530                decDigitsFromDPD
                0x001185bc                decimal64ToNumber
                0x00118690                decimal64ToString
 .text.stub     0x001186b0       0x54 linker stubs
 *(.rodata*)
 .rodata        0x00118710     0x3424 C:\DOCUME~1\sanjeev\LOCALS~1\Temp\ccubq5cn.o
 .rodata.str1.1
                0x0011bb34      0x24a C:\DOCUME~1\sanjeev\LOCALS~1\Temp\ccubq5cn.o
                                0x25e (size before relaxing)
 *fill*         0x0011bd7e        0x2 00
 .rodata        0x0011bd80        0xc windows32_realbuild/obj\libconsts.a(const_NaN.o)
                0x0011bd80                const_NaN
 .rodata        0x0011bd8c        0xc windows32_realbuild/obj\libconsts.a(const_inf.o)
                0x0011bd8c                const_inf
 .rodata        0x0011bd98        0xc windows32_realbuild/obj\libconsts.a(const__inf.o)
                0x0011bd98                const__inf
 .rodata        0x0011bda4        0xc windows32_realbuild/obj\libconsts.a(const__1.o)
                0x0011bda4                const__1
 .rodata        0x0011bdb0        0xc windows32_realbuild/obj\libconsts.a(const__0.o)
                0x0011bdb0                ::const(void)
 .rodata        0x0011bdbc        0xc windows32_realbuild/obj\libconsts.a(const_0.o)
                0x0011bdbc                const_0
 .rodata        0x0011bdc8        0xc windows32_realbuild/obj\libconsts.a(const_1.o)
                0x0011bdc8                const_1
 .rodata        0x0011bdd4        0xc windows32_realbuild/obj\libconsts.a(const_2.o)
                0x0011bdd4                const_2
 .rodata        0x0011bde0        0xc windows32_realbuild/obj\libconsts.a(const_3.o)
                0x0011bde0                const_3
 .rodata        0x0011bdec        0xc windows32_realbuild/obj\libconsts.a(const_5.o)
                0x0011bdec                const_5
 .rodata        0x0011bdf8        0xc windows32_realbuild/obj\libconsts.a(const_10.o)
                0x0011bdf8                const_10
 .rodata        0x0011be04        0xc windows32_realbuild/obj\libconsts.a(const_20.o)
                0x0011be04                const_20
 .rodata        0x0011be10        0xc windows32_realbuild/obj\libconsts.a(const_21.o)
                0x0011be10                const_21
 .rodata        0x0011be1c        0xc windows32_realbuild/obj\libconsts.a(const_32.o)
                0x0011be1c                const_32
 .rodata        0x0011be28        0xc windows32_realbuild/obj\libconsts.a(const_60.o)
                0x0011be28                const_60
 .rodata        0x0011be34        0xc windows32_realbuild/obj\libconsts.a(const_90.o)
                0x0011be34                const_90
 .rodata        0x0011be40        0xc windows32_realbuild/obj\libconsts.a(const_100.o)
                0x0011be40                const_100
 .rodata        0x0011be4c        0xc windows32_realbuild/obj\libconsts.a(const_256.o)
                0x0011be4c                const_256
 .rodata        0x0011be58        0xc windows32_realbuild/obj\libconsts.a(const_360.o)
                0x0011be58                const_360
 .rodata        0x0011be64        0xc windows32_realbuild/obj\libconsts.a(const_400.o)
                0x0011be64                const_400
 .rodata        0x0011be70        0xc windows32_realbuild/obj\libconsts.a(const_9000.o)
                0x0011be70                const_9000
 .rodata        0x0011be7c        0xc windows32_realbuild/obj\libconsts.a(const_36000.o)
                0x0011be7c                const_36000
 .rodata        0x0011be88        0xc windows32_realbuild/obj\libconsts.a(const_100000.o)
                0x0011be88                const_100000
 .rodata        0x0011be94        0xc windows32_realbuild/obj\libconsts.a(const_1e_32.o)
                0x0011be94                const_1e_32
 .rodata        0x0011bea0        0xc windows32_realbuild/obj\libconsts.a(const_1e_37.o)
                0x0011bea0                const_1e_37
 .rodata        0x0011beac        0xc windows32_realbuild/obj\libconsts.a(const_1e_24.o)
                0x0011beac                const_1e_24
 .rodata        0x0011beb8        0xc windows32_realbuild/obj\libconsts.a(const_1e_14.o)
                0x0011beb8                const_1e_14
 .rodata        0x0011bec4        0xc windows32_realbuild/obj\libconsts.a(const_0_0000005.o)
                0x0011bec4                const_0_0000005
 .rodata        0x0011bed0        0xc windows32_realbuild/obj\libconsts.a(const_0_0001.o)
                0x0011bed0                const_0_0001
 .rodata        0x0011bedc        0xc windows32_realbuild/obj\libconsts.a(const_0_1.o)
                0x0011bedc                const_0_1
 .rodata        0x0011bee8        0xc windows32_realbuild/obj\libconsts.a(const_0_05.o)
                0x0011bee8                const_0_05
 .rodata        0x0011bef4        0xc windows32_realbuild/obj\libconsts.a(const_0_4.o)
                0x0011bef4                const_0_4
 .rodata        0x0011bf00        0xc windows32_realbuild/obj\libconsts.a(const_0_5.o)
                0x0011bf00                const_0_5
 .rodata        0x0011bf0c        0xc windows32_realbuild/obj\libconsts.a(const_0_6.o)
                0x0011bf0c                const_0_6
 .rodata        0x0011bf18        0xc windows32_realbuild/obj\libconsts.a(const_0_75.o)
                0x0011bf18                const_0_75
 .rodata        0x0011bf24        0xc windows32_realbuild/obj\libconsts.a(const_0_9.o)
                0x0011bf24                const_0_9
 .rodata        0x0011bf30       0x24 windows32_realbuild/obj\libconsts.a(const_1on60.o)
                0x0011bf30                const_1on60
 .rodata        0x0011bf54        0xc windows32_realbuild/obj\libconsts.a(const_9on5.o)
                0x0011bf54                const_9on5
 .rodata        0x0011bf60       0x24 windows32_realbuild/obj\libconsts.a(const_root2on2.o)
                0x0011bf60                const_root2on2
 .rodata        0x0011bf84       0x24 windows32_realbuild/obj\libconsts.a(const_PI.o)
                0x0011bf84                const_PI
 .rodata        0x0011bfa8      0x138 windows32_realbuild/obj\libconsts.a(const_2PI.o)
                0x0011bfa8                const_2PI
 .rodata        0x0011c0e0       0x24 windows32_realbuild/obj\libconsts.a(const_PIon2.o)
                0x0011c0e0                const_PIon2
 .rodata        0x0011c104       0x24 windows32_realbuild/obj\libconsts.a(const_PIon180.o)
                0x0011c104                const_PIon180
 .rodata        0x0011c128       0x24 windows32_realbuild/obj\libconsts.a(const_PIon200.o)
                0x0011c128                const_PIon200
 .rodata        0x0011c14c       0x24 windows32_realbuild/obj\libconsts.a(const_ln2.o)
                0x0011c14c                const_ln2
 .rodata        0x0011c170       0x24 windows32_realbuild/obj\libconsts.a(const_ln10.o)
                0x0011c170                const_ln10
 .rodata        0x0011c194       0x18 windows32_realbuild/obj\libconsts.a(const_2pow64.o)
                0x0011c194                const_2pow64
 .rodata        0x0011c1ac       0x1c windows32_realbuild/obj\libconsts.a(const_randfac.o)
                0x0011c1ac                const_randfac
 .rodata        0x0011c1c8       0x10 windows32_realbuild/obj\libconsts.a(const_gammaR.o)
                0x0011c1c8                const_gammaR
 .rodata        0x0011c1d8       0x24 windows32_realbuild/obj\libconsts.a(const_gammaC00.o)
                0x0011c1d8                const_gammaC00
 .rodata        0x0011c1fc       0x24 windows32_realbuild/obj\libconsts.a(const_gammaC01.o)
                0x0011c1fc                const_gammaC01
 .rodata        0x0011c220       0x24 windows32_realbuild/obj\libconsts.a(const_gammaC02.o)
                0x0011c220                const_gammaC02
 .rodata        0x0011c244       0x24 windows32_realbuild/obj\libconsts.a(const_gammaC03.o)
                0x0011c244                const_gammaC03
 .rodata        0x0011c268       0x24 windows32_realbuild/obj\libconsts.a(const_gammaC04.o)
                0x0011c268                const_gammaC04
 .rodata        0x0011c28c       0x24 windows32_realbuild/obj\libconsts.a(const_gammaC05.o)
                0x0011c28c                const_gammaC05
 .rodata        0x0011c2b0       0x24 windows32_realbuild/obj\libconsts.a(const_gammaC06.o)
                0x0011c2b0                const_gammaC06
 .rodata        0x0011c2d4       0x24 windows32_realbuild/obj\libconsts.a(const_gammaC07.o)
                0x0011c2d4                const_gammaC07
 .rodata        0x0011c2f8       0x24 windows32_realbuild/obj\libconsts.a(const_gammaC08.o)
                0x0011c2f8                const_gammaC08
 .rodata        0x0011c31c       0x24 windows32_realbuild/obj\libconsts.a(const_gammaC09.o)
                0x0011c31c                const_gammaC09
 .rodata        0x0011c340       0x24 windows32_realbuild/obj\libconsts.a(const_gammaC10.o)
                0x0011c340                const_gammaC10
 .rodata        0x0011c364       0x24 windows32_realbuild/obj\libconsts.a(const_gammaC11.o)
                0x0011c364                const_gammaC11
 .rodata        0x0011c388       0x24 windows32_realbuild/obj\libconsts.a(const_gammaC12.o)
                0x0011c388                const_gammaC12
 .rodata        0x0011c3ac       0x24 windows32_realbuild/obj\libconsts.a(const_gammaC13.o)
                0x0011c3ac                const_gammaC13
 .rodata        0x0011c3d0       0x24 windows32_realbuild/obj\libconsts.a(const_gammaC14.o)
                0x0011c3d0                const_gammaC14
 .rodata        0x0011c3f4       0x24 windows32_realbuild/obj\libconsts.a(const_gammaC15.o)
                0x0011c3f4                const_gammaC15
 .rodata        0x0011c418       0x24 windows32_realbuild/obj\libconsts.a(const_gammaC16.o)
                0x0011c418                const_gammaC16
 .rodata        0x0011c43c       0x24 windows32_realbuild/obj\libconsts.a(const_gammaC17.o)
                0x0011c43c                const_gammaC17
 .rodata        0x0011c460       0x24 windows32_realbuild/obj\libconsts.a(const_gammaC18.o)
                0x0011c460                const_gammaC18
 .rodata        0x0011c484       0x24 windows32_realbuild/obj\libconsts.a(const_gammaC19.o)
                0x0011c484                const_gammaC19
 .rodata        0x0011c4a8       0x24 windows32_realbuild/obj\libconsts.a(const_gammaC20.o)
                0x0011c4a8                const_gammaC20
 .rodata        0x0011c4cc       0x24 windows32_realbuild/obj\libconsts.a(const_gammaC21.o)
                0x0011c4cc                const_gammaC21
 .rodata        0x0011c4f0       0x48 windows32_realbuild/obj\libdecNum34s.a(decNumber.o)
                0x0011c504                powers
 .rodata.str1.1
                0x0011c538       0x23 windows32_realbuild/obj\libdecNum34s.a(decNumber.o)
                                 0x27 (size before relaxing)
 *fill*         0x0011c55b        0x1 00
 .rodata        0x0011c55c        0x4 windows32_realbuild/obj\libdecNum34s.a(decimal128.o)
 .rodata        0x0011c560      0x118 windows32_realbuild/obj\libdecNum34s.a(decimal64.o)
                0x0011c578                COMBMSD
                0x0011c5f8                COMBEXP
 *(.xrom)
 .xrom          0x0011c678     0x1748 C:\DOCUME~1\sanjeev\LOCALS~1\Temp\ccubq5cn.o
                0x0011ddc0                . = ALIGN (0x4)
                0x0011ddc0                _efixed = .

.glue_7         0x0011ddc0        0x0
 .glue_7        0x00000000        0x0 linker stubs

.glue_7t        0x0011ddc0        0x0
 .glue_7t       0x00000000        0x0 linker stubs

.vfp11_veneer   0x0011ddc0        0x0
 .vfp11_veneer  0x00000000        0x0 linker stubs

.v4_bx          0x0011ddc0        0x0
 .v4_bx         0x00000000        0x0 linker stubs

.revision       0x0011ddc0       0x40
 *(.revision)
 .revision      0x0011ddc0        0x4 C:\DOCUME~1\sanjeev\LOCALS~1\Temp\ccubq5cn.o
                0x0011ddc0                SvnRevision
                0x0011de00                . = ALIGN (0x100)
 *fill*         0x0011ddc4       0x3c 00
                0x0011de00                UserFlash = .

.backupflash    0x0011f800      0x800
                0x00001a00                UserFlashSize = (. - UserFlash)
 *(.backup_flash)
 .backupflash   0x0011f800      0x800 C:\DOCUME~1\sanjeev\LOCALS~1\Temp\ccubq5cn.o

.bss            0x00200000      0x1a8
                0x00200000                . = ALIGN (0x4)
                0x00200000                _szero = .
 *(.bss)
 .bss           0x00200000      0x1a8 C:\DOCUME~1\sanjeev\LOCALS~1\Temp\ccubq5cn.o

.slcdcmem       0x002001a8       0x30
                0x002001a8                . = ALIGN (0x4)
 *(.slcdcmem)
 .slcdcmem      0x002001a8       0x30 C:\DOCUME~1\sanjeev\LOCALS~1\Temp\ccubq5cn.o
                0x002001d8                . = ALIGN (0x4)
                0x002001d8                _ezero = .

.volatileram    0x002001d8      0x210
                0x002001d8                . = ALIGN (0x4)
 *(.volatileram)
 .volatileram   0x002001d8      0x210 C:\DOCUME~1\sanjeev\LOCALS~1\Temp\ccubq5cn.o
                0x002003e8                . = ALIGN (0x4)

.persistentram  0x00300000      0x800
                0x00300000                . = ALIGN (0x4)
                0x00300000                _spersistentram = .
 *(.persistentram)
 .persistentram
                0x00300000      0x800 C:\DOCUME~1\sanjeev\LOCALS~1\Temp\ccubq5cn.o
                0x00300800                . = ALIGN (0x4)
                0x00300800                _epersistentram = .
                0x00201000                _sstack = 0x201000

/DISCARD/
 *(.ARM.extab*)
 *(.ARM.exidx*)
                0x00300800                end = .
OUTPUT(realbuild/calc_ir elf32-littlearm)

.ARM.attributes
                0x00000000       0x2c
 .ARM.attributes
                0x00000000       0x20 C:\DOCUME~1\sanjeev\LOCALS~1\Temp\ccS0bk9j.o
 .ARM.attributes
                0x00000020       0x30 C:\DOCUME~1\sanjeev\LOCALS~1\Temp\ccubq5cn.o
 .ARM.attributes
                0x00000050       0x16 c:/program files/gnu tools arm embedded/4.6 2012q4/bin/../lib/gcc/arm-none-eabi/4.6.2/thumb\libgcc.a(_thumb1_case_uqi.o)
 .ARM.attributes
                0x00000066       0x16 c:/program files/gnu tools arm embedded/4.6 2012q4/bin/../lib/gcc/arm-none-eabi/4.6.2/thumb\libgcc.a(_thumb1_case_uhi.o)
 .ARM.attributes
                0x0000007c       0x18 c:/program files/gnu tools arm embedded/4.6 2012q4/bin/../lib/gcc/arm-none-eabi/4.6.2/thumb\libgcc.a(_udivsi3.o)
 .ARM.attributes
                0x00000094       0x18 c:/program files/gnu tools arm embedded/4.6 2012q4/bin/../lib/gcc/arm-none-eabi/4.6.2/thumb\libgcc.a(_divsi3.o)
 .ARM.attributes
                0x000000ac       0x16 c:/program files/gnu tools arm embedded/4.6 2012q4/bin/../lib/gcc/arm-none-eabi/4.6.2/thumb\libgcc.a(_dvmd_tls.o)
 .ARM.attributes
                0x000000c2       0x16 c:/program files/gnu tools arm embedded/4.6 2012q4/bin/../lib/gcc/arm-none-eabi/4.6.2/thumb\libgcc.a(_lshrdi3.o)
 .ARM.attributes
                0x000000d8       0x16 c:/program files/gnu tools arm embedded/4.6 2012q4/bin/../lib/gcc/arm-none-eabi/4.6.2/thumb\libgcc.a(_ashrdi3.o)
 .ARM.attributes
                0x000000ee       0x16 c:/program files/gnu tools arm embedded/4.6 2012q4/bin/../lib/gcc/arm-none-eabi/4.6.2/thumb\libgcc.a(_ashldi3.o)
 .ARM.attributes
                0x00000104       0x18 c:/program files/gnu tools arm embedded/4.6 2012q4/bin/../lib/gcc/arm-none-eabi/4.6.2/thumb\libgcc.a(_aeabi_uldivmod.o)
 .ARM.attributes
                0x0000011c       0x30 c:/program files/gnu tools arm embedded/4.6 2012q4/bin/../lib/gcc/arm-none-eabi/4.6.2/thumb\libgcc.a(_muldi3.o)
 .ARM.attributes
                0x0000014c       0x30 c:/program files/gnu tools arm embedded/4.6 2012q4/bin/../lib/gcc/arm-none-eabi/4.6.2/thumb\libgcc.a(_paritysi2.o)
 .ARM.attributes
                0x0000017c       0x30 c:/program files/gnu tools arm embedded/4.6 2012q4/bin/../lib/gcc/arm-none-eabi/4.6.2/thumb\libgcc.a(bpabi.o)
 .ARM.attributes
                0x000001ac       0x30 c:/program files/gnu tools arm embedded/4.6 2012q4/bin/../lib/gcc/arm-none-eabi/4.6.2/thumb\libgcc.a(_divdi3.o)
 .ARM.attributes
                0x000001dc       0x30 c:/program files/gnu tools arm embedded/4.6 2012q4/bin/../lib/gcc/arm-none-eabi/4.6.2/thumb\libgcc.a(_udivdi3.o)
 .ARM.attributes
                0x0000020c       0x18 c:/program files/gnu tools arm embedded/4.6 2012q4/bin/../lib/gcc/arm-none-eabi/4.6.2/thumb\libgcc.a(_clzsi2.o)
 .ARM.attributes
                0x00000224       0x30 windows32_realbuild/obj\libconsts.a(const_NaN.o)
 .ARM.attributes
                0x00000254       0x30 windows32_realbuild/obj\libconsts.a(const_inf.o)
 .ARM.attributes
                0x00000284       0x30 windows32_realbuild/obj\libconsts.a(const__inf.o)
 .ARM.attributes
                0x000002b4       0x30 windows32_realbuild/obj\libconsts.a(const__1.o)
 .ARM.attributes
                0x000002e4       0x30 windows32_realbuild/obj\libconsts.a(const__0.o)
 .ARM.attributes
                0x00000314       0x30 windows32_realbuild/obj\libconsts.a(const_0.o)
 .ARM.attributes
                0x00000344       0x30 windows32_realbuild/obj\libconsts.a(const_1.o)
 .ARM.attributes
                0x00000374       0x30 windows32_realbuild/obj\libconsts.a(const_2.o)
 .ARM.attributes
                0x000003a4       0x30 windows32_realbuild/obj\libconsts.a(const_3.o)
 .ARM.attributes
                0x000003d4       0x30 windows32_realbuild/obj\libconsts.a(const_5.o)
 .ARM.attributes
                0x00000404       0x30 windows32_realbuild/obj\libconsts.a(const_10.o)
 .ARM.attributes
                0x00000434       0x30 windows32_realbuild/obj\libconsts.a(const_20.o)
 .ARM.attributes
                0x00000464       0x30 windows32_realbuild/obj\libconsts.a(const_21.o)
 .ARM.attributes
                0x00000494       0x30 windows32_realbuild/obj\libconsts.a(const_32.o)
 .ARM.attributes
                0x000004c4       0x30 windows32_realbuild/obj\libconsts.a(const_60.o)
 .ARM.attributes
                0x000004f4       0x30 windows32_realbuild/obj\libconsts.a(const_90.o)
 .ARM.attributes
                0x00000524       0x30 windows32_realbuild/obj\libconsts.a(const_100.o)
 .ARM.attributes
                0x00000554       0x30 windows32_realbuild/obj\libconsts.a(const_256.o)
 .ARM.attributes
                0x00000584       0x30 windows32_realbuild/obj\libconsts.a(const_360.o)
 .ARM.attributes
                0x000005b4       0x30 windows32_realbuild/obj\libconsts.a(const_400.o)
 .ARM.attributes
                0x000005e4       0x30 windows32_realbuild/obj\libconsts.a(const_9000.o)
 .ARM.attributes
                0x00000614       0x30 windows32_realbuild/obj\libconsts.a(const_36000.o)
 .ARM.attributes
                0x00000644       0x30 windows32_realbuild/obj\libconsts.a(const_100000.o)
 .ARM.attributes
                0x00000674       0x30 windows32_realbuild/obj\libconsts.a(const_1e_32.o)
 .ARM.attributes
                0x000006a4       0x30 windows32_realbuild/obj\libconsts.a(const_1e_37.o)
 .ARM.attributes
                0x000006d4       0x30 windows32_realbuild/obj\libconsts.a(const_1e_24.o)
 .ARM.attributes
                0x00000704       0x30 windows32_realbuild/obj\libconsts.a(const_1e_14.o)
 .ARM.attributes
                0x00000734       0x30 windows32_realbuild/obj\libconsts.a(const_0_0000005.o)
 .ARM.attributes
                0x00000764       0x30 windows32_realbuild/obj\libconsts.a(const_0_0001.o)
 .ARM.attributes
                0x00000794       0x30 windows32_realbuild/obj\libconsts.a(const_0_1.o)
 .ARM.attributes
                0x000007c4       0x30 windows32_realbuild/obj\libconsts.a(const_0_05.o)
 .ARM.attributes
                0x000007f4       0x30 windows32_realbuild/obj\libconsts.a(const_0_4.o)
 .ARM.attributes
                0x00000824       0x30 windows32_realbuild/obj\libconsts.a(const_0_5.o)
 .ARM.attributes
                0x00000854       0x30 windows32_realbuild/obj\libconsts.a(const_0_6.o)
 .ARM.attributes
                0x00000884       0x30 windows32_realbuild/obj\libconsts.a(const_0_75.o)
 .ARM.attributes
                0x000008b4       0x30 windows32_realbuild/obj\libconsts.a(const_0_9.o)
 .ARM.attributes
                0x000008e4       0x30 windows32_realbuild/obj\libconsts.a(const_1on60.o)
 .ARM.attributes
                0x00000914       0x30 windows32_realbuild/obj\libconsts.a(const_9on5.o)
 .ARM.attributes
                0x00000944       0x30 windows32_realbuild/obj\libconsts.a(const_root2on2.o)
 .ARM.attributes
                0x00000974       0x30 windows32_realbuild/obj\libconsts.a(const_PI.o)
 .ARM.attributes
                0x000009a4       0x30 windows32_realbuild/obj\libconsts.a(const_2PI.o)
 .ARM.attributes
                0x000009d4       0x30 windows32_realbuild/obj\libconsts.a(const_PIon2.o)
 .ARM.attributes
                0x00000a04       0x30 windows32_realbuild/obj\libconsts.a(const_PIon180.o)
 .ARM.attributes
                0x00000a34       0x30 windows32_realbuild/obj\libconsts.a(const_PIon200.o)
 .ARM.attributes
                0x00000a64       0x30 windows32_realbuild/obj\libconsts.a(const_ln2.o)
 .ARM.attributes
                0x00000a94       0x30 windows32_realbuild/obj\libconsts.a(const_ln10.o)
 .ARM.attributes
                0x00000ac4       0x30 windows32_realbuild/obj\libconsts.a(const_2pow64.o)
 .ARM.attributes
                0x00000af4       0x30 windows32_realbuild/obj\libconsts.a(const_randfac.o)
 .ARM.attributes
                0x00000b24       0x30 windows32_realbuild/obj\libconsts.a(const_gammaR.o)
 .ARM.attributes
                0x00000b54       0x30 windows32_realbuild/obj\libconsts.a(const_gammaC00.o)
 .ARM.attributes
                0x00000b84       0x30 windows32_realbuild/obj\libconsts.a(const_gammaC01.o)
 .ARM.attributes
                0x00000bb4       0x30 windows32_realbuild/obj\libconsts.a(const_gammaC02.o)
 .ARM.attributes
                0x00000be4       0x30 windows32_realbuild/obj\libconsts.a(const_gammaC03.o)
 .ARM.attributes
                0x00000c14       0x30 windows32_realbuild/obj\libconsts.a(const_gammaC04.o)
 .ARM.attributes
                0x00000c44       0x30 windows32_realbuild/obj\libconsts.a(const_gammaC05.o)
 .ARM.attributes
                0x00000c74       0x30 windows32_realbuild/obj\libconsts.a(const_gammaC06.o)
 .ARM.attributes
                0x00000ca4       0x30 windows32_realbuild/obj\libconsts.a(const_gammaC07.o)
 .ARM.attributes
                0x00000cd4       0x30 windows32_realbuild/obj\libconsts.a(const_gammaC08.o)
 .ARM.attributes
                0x00000d04       0x30 windows32_realbuild/obj\libconsts.a(const_gammaC09.o)
 .ARM.attributes
                0x00000d34       0x30 windows32_realbuild/obj\libconsts.a(const_gammaC10.o)
 .ARM.attributes
                0x00000d64       0x30 windows32_realbuild/obj\libconsts.a(const_gammaC11.o)
 .ARM.attributes
                0x00000d94       0x30 windows32_realbuild/obj\libconsts.a(const_gammaC12.o)
 .ARM.attributes
                0x00000dc4       0x30 windows32_realbuild/obj\libconsts.a(const_gammaC13.o)
 .ARM.attributes
                0x00000df4       0x30 windows32_realbuild/obj\libconsts.a(const_gammaC14.o)
 .ARM.attributes
                0x00000e24       0x30 windows32_realbuild/obj\libconsts.a(const_gammaC15.o)
 .ARM.attributes
                0x00000e54       0x30 windows32_realbuild/obj\libconsts.a(const_gammaC16.o)
 .ARM.attributes
                0x00000e84       0x30 windows32_realbuild/obj\libconsts.a(const_gammaC17.o)
 .ARM.attributes
                0x00000eb4       0x30 windows32_realbuild/obj\libconsts.a(const_gammaC18.o)
 .ARM.attributes
                0x00000ee4       0x30 windows32_realbuild/obj\libconsts.a(const_gammaC19.o)
 .ARM.attributes
                0x00000f14       0x30 windows32_realbuild/obj\libconsts.a(const_gammaC20.o)
 .ARM.attributes
                0x00000f44       0x30 windows32_realbuild/obj\libconsts.a(const_gammaC21.o)
 .ARM.attributes
                0x00000f74       0x30 windows32_realbuild/obj\libdecNum34s.a(decContext.o)
 .ARM.attributes
                0x00000fa4       0x30 windows32_realbuild/obj\libdecNum34s.a(decNumber.o)
 .ARM.attributes
                0x00000fd4       0x30 windows32_realbuild/obj\libdecNum34s.a(decimal128.o)
 .ARM.attributes
                0x00001004       0x30 windows32_realbuild/obj\libdecNum34s.a(decimal64.o)

.comment        0x00000000       0x70
 .comment       0x00000000       0x70 C:\DOCUME~1\sanjeev\LOCALS~1\Temp\ccubq5cn.o
                                 0x71 (size before relaxing)
 .comment       0x00000000       0x71 windows32_realbuild/obj\libconsts.a(const_NaN.o)
 .comment       0x00000000       0x71 windows32_realbuild/obj\libconsts.a(const_inf.o)
 .comment       0x00000000       0x71 windows32_realbuild/obj\libconsts.a(const__inf.o)
 .comment       0x00000000       0x71 windows32_realbuild/obj\libconsts.a(const__1.o)
 .comment       0x00000000       0x71 windows32_realbuild/obj\libconsts.a(const__0.o)
 .comment       0x00000000       0x71 windows32_realbuild/obj\libconsts.a(const_0.o)
 .comment       0x00000000       0x71 windows32_realbuild/obj\libconsts.a(const_1.o)
 .comment       0x00000000       0x71 windows32_realbuild/obj\libconsts.a(const_2.o)
 .comment       0x00000000       0x71 windows32_realbuild/obj\libconsts.a(const_3.o)
 .comment       0x00000000       0x71 windows32_realbuild/obj\libconsts.a(const_5.o)
 .comment       0x00000000       0x71 windows32_realbuild/obj\libconsts.a(const_10.o)
 .comment       0x00000000       0x71 windows32_realbuild/obj\libconsts.a(const_20.o)
 .comment       0x00000000       0x71 windows32_realbuild/obj\libconsts.a(const_21.o)
 .comment       0x00000000       0x71 windows32_realbuild/obj\libconsts.a(const_32.o)
 .comment       0x00000000       0x71 windows32_realbuild/obj\libconsts.a(const_60.o)
 .comment       0x00000000       0x71 windows32_realbuild/obj\libconsts.a(const_90.o)
 .comment       0x00000000       0x71 windows32_realbuild/obj\libconsts.a(const_100.o)
 .comment       0x00000000       0x71 windows32_realbuild/obj\libconsts.a(const_256.o)
 .comment       0x00000000       0x71 windows32_realbuild/obj\libconsts.a(const_360.o)
 .comment       0x00000000       0x71 windows32_realbuild/obj\libconsts.a(const_400.o)
 .comment       0x00000000       0x71 windows32_realbuild/obj\libconsts.a(const_9000.o)
 .comment       0x00000000       0x71 windows32_realbuild/obj\libconsts.a(const_36000.o)
 .comment       0x00000000       0x71 windows32_realbuild/obj\libconsts.a(const_100000.o)
 .comment       0x00000000       0x71 windows32_realbuild/obj\libconsts.a(const_1e_32.o)
 .comment       0x00000000       0x71 windows32_realbuild/obj\libconsts.a(const_1e_37.o)
 .comment       0x00000000       0x71 windows32_realbuild/obj\libconsts.a(const_1e_24.o)
 .comment       0x00000000       0x71 windows32_realbuild/obj\libconsts.a(const_1e_14.o)
 .comment       0x00000000       0x71 windows32_realbuild/obj\libconsts.a(const_0_0000005.o)
 .comment       0x00000000       0x71 windows32_realbuild/obj\libconsts.a(const_0_0001.o)
 .comment       0x00000000       0x71 windows32_realbuild/obj\libconsts.a(const_0_1.o)
 .comment       0x00000000       0x71 windows32_realbuild/obj\libconsts.a(const_0_05.o)
 .comment       0x00000000       0x71 windows32_realbuild/obj\libconsts.a(const_0_4.o)
 .comment       0x00000000       0x71 windows32_realbuild/obj\libconsts.a(const_0_5.o)
 .comment       0x00000000       0x71 windows32_realbuild/obj\libconsts.a(const_0_6.o)
 .comment       0x00000000       0x71 windows32_realbuild/obj\libconsts.a(const_0_75.o)
 .comment       0x00000000       0x71 windows32_realbuild/obj\libconsts.a(const_0_9.o)
 .comment       0x00000000       0x71 windows32_realbuild/obj\libconsts.a(const_1on60.o)
 .comment       0x00000000       0x71 windows32_realbuild/obj\libconsts.a(const_9on5.o)
 .comment       0x00000000       0x71 windows32_realbuild/obj\libconsts.a(const_root2on2.o)
 .comment       0x00000000       0x71 windows32_realbuild/obj\libconsts.a(const_PI.o)
 .comment       0x00000000       0x71 windows32_realbuild/obj\libconsts.a(const_2PI.o)
 .comment       0x00000000       0x71 windows32_realbuild/obj\libconsts.a(const_PIon2.o)
 .comment       0x00000000       0x71 windows32_realbuild/obj\libconsts.a(const_PIon180.o)
 .comment       0x00000000       0x71 windows32_realbuild/obj\libconsts.a(const_PIon200.o)
 .comment       0x00000000       0x71 windows32_realbuild/obj\libconsts.a(const_ln2.o)
 .comment       0x00000000       0x71 windows32_realbuild/obj\libconsts.a(const_ln10.o)
 .comment       0x00000000       0x71 windows32_realbuild/obj\libconsts.a(const_2pow64.o)
 .comment       0x00000000       0x71 windows32_realbuild/obj\libconsts.a(const_randfac.o)
 .comment       0x00000000       0x71 windows32_realbuild/obj\libconsts.a(const_gammaR.o)
 .comment       0x00000000       0x71 windows32_realbuild/obj\libconsts.a(const_gammaC00.o)
 .comment       0x00000000       0x71 windows32_realbuild/obj\libconsts.a(const_gammaC01.o)
 .comment       0x00000000       0x71 windows32_realbuild/obj\libconsts.a(const_gammaC02.o)
 .comment       0x00000000       0x71 windows32_realbuild/obj\libconsts.a(const_gammaC03.o)
 .comment       0x00000000       0x71 windows32_realbuild/obj\libconsts.a(const_gammaC04.o)
 .comment       0x00000000       0x71 windows32_realbuild/obj\libconsts.a(const_gammaC05.o)
 .comment       0x00000000       0x71 windows32_realbuild/obj\libconsts.a(const_gammaC06.o)
 .comment       0x00000000       0x71 windows32_realbuild/obj\libconsts.a(const_gammaC07.o)
 .comment       0x00000000       0x71 windows32_realbuild/obj\libconsts.a(const_gammaC08.o)
 .comment       0x00000000       0x71 windows32_realbuild/obj\libconsts.a(const_gammaC09.o)
 .comment       0x00000000       0x71 windows32_realbuild/obj\libconsts.a(const_gammaC10.o)
 .comment       0x00000000       0x71 windows32_realbuild/obj\libconsts.a(const_gammaC11.o)
 .comment       0x00000000       0x71 windows32_realbuild/obj\libconsts.a(const_gammaC12.o)
 .comment       0x00000000       0x71 windows32_realbuild/obj\libconsts.a(const_gammaC13.o)
 .comment       0x00000000       0x71 windows32_realbuild/obj\libconsts.a(const_gammaC14.o)
 .comment       0x00000000       0x71 windows32_realbuild/obj\libconsts.a(const_gammaC15.o)
 .comment       0x00000000       0x71 windows32_realbuild/obj\libconsts.a(const_gammaC16.o)
 .comment       0x00000000       0x71 windows32_realbuild/obj\libconsts.a(const_gammaC17.o)
 .comment       0x00000000       0x71 windows32_realbuild/obj\libconsts.a(const_gammaC18.o)
 .comment       0x00000000       0x71 windows32_realbuild/obj\libconsts.a(const_gammaC19.o)
 .comment       0x00000000       0x71 windows32_realbuild/obj\libconsts.a(const_gammaC20.o)
 .comment       0x00000000       0x71 windows32_realbuild/obj\libconsts.a(const_gammaC21.o)
 .comment       0x00000000       0x71 windows32_realbuild/obj\libdecNum34s.a(decContext.o)
 .comment       0x00000000       0x71 windows32_realbuild/obj\libdecNum34s.a(decNumber.o)
 .comment       0x00000000       0x71 windows32_realbuild/obj\libdecNum34s.a(decimal128.o)
 .comment       0x00000000       0x71 windows32_realbuild/obj\libdecNum34s.a(decimal64.o)

.debug_line     0x00000000     0x8f71
 .debug_line    0x00000000       0x7e C:\DOCUME~1\sanjeev\LOCALS~1\Temp\ccS0bk9j.o
 .debug_line    0x0000007e     0x639f C:\DOCUME~1\sanjeev\LOCALS~1\Temp\ccubq5cn.o
 .debug_line    0x0000641d       0x4c windows32_realbuild/obj\libconsts.a(const_NaN.o)
 .debug_line    0x00006469       0x4c windows32_realbuild/obj\libconsts.a(const_inf.o)
 .debug_line    0x000064b5       0x4d windows32_realbuild/obj\libconsts.a(const__inf.o)
 .debug_line    0x00006502       0x4b windows32_realbuild/obj\libconsts.a(const__1.o)
 .debug_line    0x0000654d       0x4b windows32_realbuild/obj\libconsts.a(const__0.o)
 .debug_line    0x00006598       0x4a windows32_realbuild/obj\libconsts.a(const_0.o)
 .debug_line    0x000065e2       0x4a windows32_realbuild/obj\libconsts.a(const_1.o)
 .debug_line    0x0000662c       0x4a windows32_realbuild/obj\libconsts.a(const_2.o)
 .debug_line    0x00006676       0x4a windows32_realbuild/obj\libconsts.a(const_3.o)
 .debug_line    0x000066c0       0x4a windows32_realbuild/obj\libconsts.a(const_5.o)
 .debug_line    0x0000670a       0x4b windows32_realbuild/obj\libconsts.a(const_10.o)
 .debug_line    0x00006755       0x4b windows32_realbuild/obj\libconsts.a(const_20.o)
 .debug_line    0x000067a0       0x4b windows32_realbuild/obj\libconsts.a(const_21.o)
 .debug_line    0x000067eb       0x4b windows32_realbuild/obj\libconsts.a(const_32.o)
 .debug_line    0x00006836       0x4b windows32_realbuild/obj\libconsts.a(const_60.o)
 .debug_line    0x00006881       0x4b windows32_realbuild/obj\libconsts.a(const_90.o)
 .debug_line    0x000068cc       0x4c windows32_realbuild/obj\libconsts.a(const_100.o)
 .debug_line    0x00006918       0x4c windows32_realbuild/obj\libconsts.a(const_256.o)
 .debug_line    0x00006964       0x4c windows32_realbuild/obj\libconsts.a(const_360.o)
 .debug_line    0x000069b0       0x4c windows32_realbuild/obj\libconsts.a(const_400.o)
 .debug_line    0x000069fc       0x4d windows32_realbuild/obj\libconsts.a(const_9000.o)
 .debug_line    0x00006a49       0x4e windows32_realbuild/obj\libconsts.a(const_36000.o)
 .debug_line    0x00006a97       0x4f windows32_realbuild/obj\libconsts.a(const_100000.o)
 .debug_line    0x00006ae6       0x4e windows32_realbuild/obj\libconsts.a(const_1e_32.o)
 .debug_line    0x00006b34       0x4e windows32_realbuild/obj\libconsts.a(const_1e_37.o)
 .debug_line    0x00006b82       0x4e windows32_realbuild/obj\libconsts.a(const_1e_24.o)
 .debug_line    0x00006bd0       0x4e windows32_realbuild/obj\libconsts.a(const_1e_14.o)
 .debug_line    0x00006c1e       0x52 windows32_realbuild/obj\libconsts.a(const_0_0000005.o)
 .debug_line    0x00006c70       0x4f windows32_realbuild/obj\libconsts.a(const_0_0001.o)
 .debug_line    0x00006cbf       0x4c windows32_realbuild/obj\libconsts.a(const_0_1.o)
 .debug_line    0x00006d0b       0x4d windows32_realbuild/obj\libconsts.a(const_0_05.o)
 .debug_line    0x00006d58       0x4c windows32_realbuild/obj\libconsts.a(const_0_4.o)
 .debug_line    0x00006da4       0x4c windows32_realbuild/obj\libconsts.a(const_0_5.o)
 .debug_line    0x00006df0       0x4c windows32_realbuild/obj\libconsts.a(const_0_6.o)
 .debug_line    0x00006e3c       0x4d windows32_realbuild/obj\libconsts.a(const_0_75.o)
 .debug_line    0x00006e89       0x4c windows32_realbuild/obj\libconsts.a(const_0_9.o)
 .debug_line    0x00006ed5       0x4e windows32_realbuild/obj\libconsts.a(const_1on60.o)
 .debug_line    0x00006f23       0x4d windows32_realbuild/obj\libconsts.a(const_9on5.o)
 .debug_line    0x00006f70       0x51 windows32_realbuild/obj\libconsts.a(const_root2on2.o)
 .debug_line    0x00006fc1       0x4b windows32_realbuild/obj\libconsts.a(const_PI.o)
 .debug_line    0x0000700c       0x4c windows32_realbuild/obj\libconsts.a(const_2PI.o)
 .debug_line    0x00007058       0x4e windows32_realbuild/obj\libconsts.a(const_PIon2.o)
 .debug_line    0x000070a6       0x50 windows32_realbuild/obj\libconsts.a(const_PIon180.o)
 .debug_line    0x000070f6       0x50 windows32_realbuild/obj\libconsts.a(const_PIon200.o)
 .debug_line    0x00007146       0x4c windows32_realbuild/obj\libconsts.a(const_ln2.o)
 .debug_line    0x00007192       0x4d windows32_realbuild/obj\libconsts.a(const_ln10.o)
 .debug_line    0x000071df       0x4f windows32_realbuild/obj\libconsts.a(const_2pow64.o)
 .debug_line    0x0000722e       0x50 windows32_realbuild/obj\libconsts.a(const_randfac.o)
 .debug_line    0x0000727e       0x4f windows32_realbuild/obj\libconsts.a(const_gammaR.o)
 .debug_line    0x000072cd       0x51 windows32_realbuild/obj\libconsts.a(const_gammaC00.o)
 .debug_line    0x0000731e       0x51 windows32_realbuild/obj\libconsts.a(const_gammaC01.o)
 .debug_line    0x0000736f       0x51 windows32_realbuild/obj\libconsts.a(const_gammaC02.o)
 .debug_line    0x000073c0       0x51 windows32_realbuild/obj\libconsts.a(const_gammaC03.o)
 .debug_line    0x00007411       0x51 windows32_realbuild/obj\libconsts.a(const_gammaC04.o)
 .debug_line    0x00007462       0x51 windows32_realbuild/obj\libconsts.a(const_gammaC05.o)
 .debug_line    0x000074b3       0x51 windows32_realbuild/obj\libconsts.a(const_gammaC06.o)
 .debug_line    0x00007504       0x51 windows32_realbuild/obj\libconsts.a(const_gammaC07.o)
 .debug_line    0x00007555       0x51 windows32_realbuild/obj\libconsts.a(const_gammaC08.o)
 .debug_line    0x000075a6       0x51 windows32_realbuild/obj\libconsts.a(const_gammaC09.o)
 .debug_line    0x000075f7       0x51 windows32_realbuild/obj\libconsts.a(const_gammaC10.o)
 .debug_line    0x00007648       0x51 windows32_realbuild/obj\libconsts.a(const_gammaC11.o)
 .debug_line    0x00007699       0x51 windows32_realbuild/obj\libconsts.a(const_gammaC12.o)
 .debug_line    0x000076ea       0x51 windows32_realbuild/obj\libconsts.a(const_gammaC13.o)
 .debug_line    0x0000773b       0x51 windows32_realbuild/obj\libconsts.a(const_gammaC14.o)
 .debug_line    0x0000778c       0x51 windows32_realbuild/obj\libconsts.a(const_gammaC15.o)
 .debug_line    0x000077dd       0x51 windows32_realbuild/obj\libconsts.a(const_gammaC16.o)
 .debug_line    0x0000782e       0x51 windows32_realbuild/obj\libconsts.a(const_gammaC17.o)
 .debug_line    0x0000787f       0x51 windows32_realbuild/obj\libconsts.a(const_gammaC18.o)
 .debug_line    0x000078d0       0x51 windows32_realbuild/obj\libconsts.a(const_gammaC19.o)
 .debug_line    0x00007921       0x51 windows32_realbuild/obj\libconsts.a(const_gammaC20.o)
 .debug_line    0x00007972       0x51 windows32_realbuild/obj\libconsts.a(const_gammaC21.o)
 .debug_line    0x000079c3       0x6b windows32_realbuild/obj\libdecNum34s.a(decContext.o)
 .debug_line    0x00007a2e     0x11fe windows32_realbuild/obj\libdecNum34s.a(decNumber.o)
 .debug_line    0x00008c2c      0x12d windows32_realbuild/obj\libdecNum34s.a(decimal128.o)
 .debug_line    0x00008d59      0x218 windows32_realbuild/obj\libdecNum34s.a(decimal64.o)

.debug_info     0x00000000    0x26c4a
 .debug_info    0x00000000       0x5d C:\DOCUME~1\sanjeev\LOCALS~1\Temp\ccS0bk9j.o
 .debug_info    0x0000005d    0x1f30e C:\DOCUME~1\sanjeev\LOCALS~1\Temp\ccubq5cn.o
 .debug_info    0x0001f36b       0xe7 windows32_realbuild/obj\libconsts.a(const_NaN.o)
 .debug_info    0x0001f452       0xe7 windows32_realbuild/obj\libconsts.a(const_inf.o)
 .debug_info    0x0001f539       0xe7 windows32_realbuild/obj\libconsts.a(const__inf.o)
 .debug_info    0x0001f620       0xe7 windows32_realbuild/obj\libconsts.a(const__1.o)
 .debug_info    0x0001f707       0xe7 windows32_realbuild/obj\libconsts.a(const__0.o)
 .debug_info    0x0001f7ee       0xe7 windows32_realbuild/obj\libconsts.a(const_0.o)
 .debug_info    0x0001f8d5       0xe7 windows32_realbuild/obj\libconsts.a(const_1.o)
 .debug_info    0x0001f9bc       0xe7 windows32_realbuild/obj\libconsts.a(const_2.o)
 .debug_info    0x0001faa3       0xe7 windows32_realbuild/obj\libconsts.a(const_3.o)
 .debug_info    0x0001fb8a       0xe7 windows32_realbuild/obj\libconsts.a(const_5.o)
 .debug_info    0x0001fc71       0xe7 windows32_realbuild/obj\libconsts.a(const_10.o)
 .debug_info    0x0001fd58       0xe7 windows32_realbuild/obj\libconsts.a(const_20.o)
 .debug_info    0x0001fe3f       0xe7 windows32_realbuild/obj\libconsts.a(const_21.o)
 .debug_info    0x0001ff26       0xe7 windows32_realbuild/obj\libconsts.a(const_32.o)
 .debug_info    0x0002000d       0xe7 windows32_realbuild/obj\libconsts.a(const_60.o)
 .debug_info    0x000200f4       0xe7 windows32_realbuild/obj\libconsts.a(const_90.o)
 .debug_info    0x000201db       0xe7 windows32_realbuild/obj\libconsts.a(const_100.o)
 .debug_info    0x000202c2       0xe7 windows32_realbuild/obj\libconsts.a(const_256.o)
 .debug_info    0x000203a9       0xe7 windows32_realbuild/obj\libconsts.a(const_360.o)
 .debug_info    0x00020490       0xe7 windows32_realbuild/obj\libconsts.a(const_400.o)
 .debug_info    0x00020577       0xe7 windows32_realbuild/obj\libconsts.a(const_9000.o)
 .debug_info    0x0002065e       0xe7 windows32_realbuild/obj\libconsts.a(const_36000.o)
 .debug_info    0x00020745       0xe7 windows32_realbuild/obj\libconsts.a(const_100000.o)
 .debug_info    0x0002082c       0xe7 windows32_realbuild/obj\libconsts.a(const_1e_32.o)
 .debug_info    0x00020913       0xe7 windows32_realbuild/obj\libconsts.a(const_1e_37.o)
 .debug_info    0x000209fa       0xe7 windows32_realbuild/obj\libconsts.a(const_1e_24.o)
 .debug_info    0x00020ae1       0xe7 windows32_realbuild/obj\libconsts.a(const_1e_14.o)
 .debug_info    0x00020bc8       0xe7 windows32_realbuild/obj\libconsts.a(const_0_0000005.o)
 .debug_info    0x00020caf       0xe7 windows32_realbuild/obj\libconsts.a(const_0_0001.o)
 .debug_info    0x00020d96       0xe7 windows32_realbuild/obj\libconsts.a(const_0_1.o)
 .debug_info    0x00020e7d       0xe7 windows32_realbuild/obj\libconsts.a(const_0_05.o)
 .debug_info    0x00020f64       0xe7 windows32_realbuild/obj\libconsts.a(const_0_4.o)
 .debug_info    0x0002104b       0xe7 windows32_realbuild/obj\libconsts.a(const_0_5.o)
 .debug_info    0x00021132       0xe7 windows32_realbuild/obj\libconsts.a(const_0_6.o)
 .debug_info    0x00021219       0xe7 windows32_realbuild/obj\libconsts.a(const_0_75.o)
 .debug_info    0x00021300       0xe7 windows32_realbuild/obj\libconsts.a(const_0_9.o)
 .debug_info    0x000213e7       0xe7 windows32_realbuild/obj\libconsts.a(const_1on60.o)
 .debug_info    0x000214ce       0xe7 windows32_realbuild/obj\libconsts.a(const_9on5.o)
 .debug_info    0x000215b5       0xe7 windows32_realbuild/obj\libconsts.a(const_root2on2.o)
 .debug_info    0x0002169c       0xe7 windows32_realbuild/obj\libconsts.a(const_PI.o)
 .debug_info    0x00021783       0xe8 windows32_realbuild/obj\libconsts.a(const_2PI.o)
 .debug_info    0x0002186b       0xe7 windows32_realbuild/obj\libconsts.a(const_PIon2.o)
 .debug_info    0x00021952       0xe7 windows32_realbuild/obj\libconsts.a(const_PIon180.o)
 .debug_info    0x00021a39       0xe7 windows32_realbuild/obj\libconsts.a(const_PIon200.o)
 .debug_info    0x00021b20       0xe7 windows32_realbuild/obj\libconsts.a(const_ln2.o)
 .debug_info    0x00021c07       0xe7 windows32_realbuild/obj\libconsts.a(const_ln10.o)
 .debug_info    0x00021cee       0xe7 windows32_realbuild/obj\libconsts.a(const_2pow64.o)
 .debug_info    0x00021dd5       0xe7 windows32_realbuild/obj\libconsts.a(const_randfac.o)
 .debug_info    0x00021ebc       0xe7 windows32_realbuild/obj\libconsts.a(const_gammaR.o)
 .debug_info    0x00021fa3       0xe7 windows32_realbuild/obj\libconsts.a(const_gammaC00.o)
 .debug_info    0x0002208a       0xe7 windows32_realbuild/obj\libconsts.a(const_gammaC01.o)
 .debug_info    0x00022171       0xe7 windows32_realbuild/obj\libconsts.a(const_gammaC02.o)
 .debug_info    0x00022258       0xe7 windows32_realbuild/obj\libconsts.a(const_gammaC03.o)
 .debug_info    0x0002233f       0xe7 windows32_realbuild/obj\libconsts.a(const_gammaC04.o)
 .debug_info    0x00022426       0xe7 windows32_realbuild/obj\libconsts.a(const_gammaC05.o)
 .debug_info    0x0002250d       0xe7 windows32_realbuild/obj\libconsts.a(const_gammaC06.o)
 .debug_info    0x000225f4       0xe7 windows32_realbuild/obj\libconsts.a(const_gammaC07.o)
 .debug_info    0x000226db       0xe7 windows32_realbuild/obj\libconsts.a(const_gammaC08.o)
 .debug_info    0x000227c2       0xe7 windows32_realbuild/obj\libconsts.a(const_gammaC09.o)
 .debug_info    0x000228a9       0xe7 windows32_realbuild/obj\libconsts.a(const_gammaC10.o)
 .debug_info    0x00022990       0xe7 windows32_realbuild/obj\libconsts.a(const_gammaC11.o)
 .debug_info    0x00022a77       0xe7 windows32_realbuild/obj\libconsts.a(const_gammaC12.o)
 .debug_info    0x00022b5e       0xe7 windows32_realbuild/obj\libconsts.a(const_gammaC13.o)
 .debug_info    0x00022c45       0xe7 windows32_realbuild/obj\libconsts.a(const_gammaC14.o)
 .debug_info    0x00022d2c       0xe7 windows32_realbuild/obj\libconsts.a(const_gammaC15.o)
 .debug_info    0x00022e13       0xe7 windows32_realbuild/obj\libconsts.a(const_gammaC16.o)
 .debug_info    0x00022efa       0xe7 windows32_realbuild/obj\libconsts.a(const_gammaC17.o)
 .debug_info    0x00022fe1       0xe7 windows32_realbuild/obj\libconsts.a(const_gammaC18.o)
 .debug_info    0x000230c8       0xe7 windows32_realbuild/obj\libconsts.a(const_gammaC19.o)
 .debug_info    0x000231af       0xe7 windows32_realbuild/obj\libconsts.a(const_gammaC20.o)
 .debug_info    0x00023296       0xe7 windows32_realbuild/obj\libconsts.a(const_gammaC21.o)
 .debug_info    0x0002337d      0x1ce windows32_realbuild/obj\libdecNum34s.a(decContext.o)
 .debug_info    0x0002354b     0x2bf9 windows32_realbuild/obj\libdecNum34s.a(decNumber.o)
 .debug_info    0x00026144      0x418 windows32_realbuild/obj\libdecNum34s.a(decimal128.o)
 .debug_info    0x0002655c      0x6ee windows32_realbuild/obj\libdecNum34s.a(decimal64.o)

.debug_abbrev   0x00000000     0x370d
 .debug_abbrev  0x00000000       0x14 C:\DOCUME~1\sanjeev\LOCALS~1\Temp\ccS0bk9j.o
 .debug_abbrev  0x00000014      0x908 C:\DOCUME~1\sanjeev\LOCALS~1\Temp\ccubq5cn.o
 .debug_abbrev  0x0000091c       0x8c windows32_realbuild/obj\libconsts.a(const_NaN.o)
 .debug_abbrev  0x000009a8       0x8c windows32_realbuild/obj\libconsts.a(const_inf.o)
 .debug_abbrev  0x00000a34       0x8c windows32_realbuild/obj\libconsts.a(const__inf.o)
 .debug_abbrev  0x00000ac0       0x8c windows32_realbuild/obj\libconsts.a(const__1.o)
 .debug_abbrev  0x00000b4c       0x8c windows32_realbuild/obj\libconsts.a(const__0.o)
 .debug_abbrev  0x00000bd8       0x8c windows32_realbuild/obj\libconsts.a(const_0.o)
 .debug_abbrev  0x00000c64       0x8c windows32_realbuild/obj\libconsts.a(const_1.o)
 .debug_abbrev  0x00000cf0       0x8c windows32_realbuild/obj\libconsts.a(const_2.o)
 .debug_abbrev  0x00000d7c       0x8c windows32_realbuild/obj\libconsts.a(const_3.o)
 .debug_abbrev  0x00000e08       0x8c windows32_realbuild/obj\libconsts.a(const_5.o)
 .debug_abbrev  0x00000e94       0x8c windows32_realbuild/obj\libconsts.a(const_10.o)
 .debug_abbrev  0x00000f20       0x8c windows32_realbuild/obj\libconsts.a(const_20.o)
 .debug_abbrev  0x00000fac       0x8c windows32_realbuild/obj\libconsts.a(const_21.o)
 .debug_abbrev  0x00001038       0x8c windows32_realbuild/obj\libconsts.a(const_32.o)
 .debug_abbrev  0x000010c4       0x8c windows32_realbuild/obj\libconsts.a(const_60.o)
 .debug_abbrev  0x00001150       0x8c windows32_realbuild/obj\libconsts.a(const_90.o)
 .debug_abbrev  0x000011dc       0x8c windows32_realbuild/obj\libconsts.a(const_100.o)
 .debug_abbrev  0x00001268       0x8c windows32_realbuild/obj\libconsts.a(const_256.o)
 .debug_abbrev  0x000012f4       0x8c windows32_realbuild/obj\libconsts.a(const_360.o)
 .debug_abbrev  0x00001380       0x8c windows32_realbuild/obj\libconsts.a(const_400.o)
 .debug_abbrev  0x0000140c       0x8c windows32_realbuild/obj\libconsts.a(const_9000.o)
 .debug_abbrev  0x00001498       0x8c windows32_realbuild/obj\libconsts.a(const_36000.o)
 .debug_abbrev  0x00001524       0x8c windows32_realbuild/obj\libconsts.a(const_100000.o)
 .debug_abbrev  0x000015b0       0x8c windows32_realbuild/obj\libconsts.a(const_1e_32.o)
 .debug_abbrev  0x0000163c       0x8c windows32_realbuild/obj\libconsts.a(const_1e_37.o)
 .debug_abbrev  0x000016c8       0x8c windows32_realbuild/obj\libconsts.a(const_1e_24.o)
 .debug_abbrev  0x00001754       0x8c windows32_realbuild/obj\libconsts.a(const_1e_14.o)
 .debug_abbrev  0x000017e0       0x8c windows32_realbuild/obj\libconsts.a(const_0_0000005.o)
 .debug_abbrev  0x0000186c       0x8c windows32_realbuild/obj\libconsts.a(const_0_0001.o)
 .debug_abbrev  0x000018f8       0x8c windows32_realbuild/obj\libconsts.a(const_0_1.o)
 .debug_abbrev  0x00001984       0x8c windows32_realbuild/obj\libconsts.a(const_0_05.o)
 .debug_abbrev  0x00001a10       0x8c windows32_realbuild/obj\libconsts.a(const_0_4.o)
 .debug_abbrev  0x00001a9c       0x8c windows32_realbuild/obj\libconsts.a(const_0_5.o)
 .debug_abbrev  0x00001b28       0x8c windows32_realbuild/obj\libconsts.a(const_0_6.o)
 .debug_abbrev  0x00001bb4       0x8c windows32_realbuild/obj\libconsts.a(const_0_75.o)
 .debug_abbrev  0x00001c40       0x8c windows32_realbuild/obj\libconsts.a(const_0_9.o)
 .debug_abbrev  0x00001ccc       0x8c windows32_realbuild/obj\libconsts.a(const_1on60.o)
 .debug_abbrev  0x00001d58       0x8c windows32_realbuild/obj\libconsts.a(const_9on5.o)
 .debug_abbrev  0x00001de4       0x8c windows32_realbuild/obj\libconsts.a(const_root2on2.o)
 .debug_abbrev  0x00001e70       0x8c windows32_realbuild/obj\libconsts.a(const_PI.o)
 .debug_abbrev  0x00001efc       0x8c windows32_realbuild/obj\libconsts.a(const_2PI.o)
 .debug_abbrev  0x00001f88       0x8c windows32_realbuild/obj\libconsts.a(const_PIon2.o)
 .debug_abbrev  0x00002014       0x8c windows32_realbuild/obj\libconsts.a(const_PIon180.o)
 .debug_abbrev  0x000020a0       0x8c windows32_realbuild/obj\libconsts.a(const_PIon200.o)
 .debug_abbrev  0x0000212c       0x8c windows32_realbuild/obj\libconsts.a(const_ln2.o)
 .debug_abbrev  0x000021b8       0x8c windows32_realbuild/obj\libconsts.a(const_ln10.o)
 .debug_abbrev  0x00002244       0x8c windows32_realbuild/obj\libconsts.a(const_2pow64.o)
 .debug_abbrev  0x000022d0       0x8c windows32_realbuild/obj\libconsts.a(const_randfac.o)
 .debug_abbrev  0x0000235c       0x8c windows32_realbuild/obj\libconsts.a(const_gammaR.o)
 .debug_abbrev  0x000023e8       0x8c windows32_realbuild/obj\libconsts.a(const_gammaC00.o)
 .debug_abbrev  0x00002474       0x8c windows32_realbuild/obj\libconsts.a(const_gammaC01.o)
 .debug_abbrev  0x00002500       0x8c windows32_realbuild/obj\libconsts.a(const_gammaC02.o)
 .debug_abbrev  0x0000258c       0x8c windows32_realbuild/obj\libconsts.a(const_gammaC03.o)
 .debug_abbrev  0x00002618       0x8c windows32_realbuild/obj\libconsts.a(const_gammaC04.o)
 .debug_abbrev  0x000026a4       0x8c windows32_realbuild/obj\libconsts.a(const_gammaC05.o)
 .debug_abbrev  0x00002730       0x8c windows32_realbuild/obj\libconsts.a(const_gammaC06.o)
 .debug_abbrev  0x000027bc       0x8c windows32_realbuild/obj\libconsts.a(const_gammaC07.o)
 .debug_abbrev  0x00002848       0x8c windows32_realbuild/obj\libconsts.a(const_gammaC08.o)
 .debug_abbrev  0x000028d4       0x8c windows32_realbuild/obj\libconsts.a(const_gammaC09.o)
 .debug_abbrev  0x00002960       0x8c windows32_realbuild/obj\libconsts.a(const_gammaC10.o)
 .debug_abbrev  0x000029ec       0x8c windows32_realbuild/obj\libconsts.a(const_gammaC11.o)
 .debug_abbrev  0x00002a78       0x8c windows32_realbuild/obj\libconsts.a(const_gammaC12.o)
 .debug_abbrev  0x00002b04       0x8c windows32_realbuild/obj\libconsts.a(const_gammaC13.o)
 .debug_abbrev  0x00002b90       0x8c windows32_realbuild/obj\libconsts.a(const_gammaC14.o)
 .debug_abbrev  0x00002c1c       0x8c windows32_realbuild/obj\libconsts.a(const_gammaC15.o)
 .debug_abbrev  0x00002ca8       0x8c windows32_realbuild/obj\libconsts.a(const_gammaC16.o)
 .debug_abbrev  0x00002d34       0x8c windows32_realbuild/obj\libconsts.a(const_gammaC17.o)
 .debug_abbrev  0x00002dc0       0x8c windows32_realbuild/obj\libconsts.a(const_gammaC18.o)
 .debug_abbrev  0x00002e4c       0x8c windows32_realbuild/obj\libconsts.a(const_gammaC19.o)
 .debug_abbrev  0x00002ed8       0x8c windows32_realbuild/obj\libconsts.a(const_gammaC20.o)
 .debug_abbrev  0x00002f64       0x8c windows32_realbuild/obj\libconsts.a(const_gammaC21.o)
 .debug_abbrev  0x00002ff0       0xec windows32_realbuild/obj\libdecNum34s.a(decContext.o)
 .debug_abbrev  0x000030dc      0x2e6 windows32_realbuild/obj\libdecNum34s.a(decNumber.o)
 .debug_abbrev  0x000033c2      0x14e windows32_realbuild/obj\libdecNum34s.a(decimal128.o)
 .debug_abbrev  0x00003510      0x1fd windows32_realbuild/obj\libdecNum34s.a(decimal64.o)

.debug_aranges  0x00000000      0x110
 .debug_aranges
                0x00000000       0x20 C:\DOCUME~1\sanjeev\LOCALS~1\Temp\ccS0bk9j.o
 .debug_aranges
                0x00000020       0x70 C:\DOCUME~1\sanjeev\LOCALS~1\Temp\ccubq5cn.o
 .debug_aranges
                0x00000090       0x20 windows32_realbuild/obj\libdecNum34s.a(decContext.o)
 .debug_aranges
                0x000000b0       0x20 windows32_realbuild/obj\libdecNum34s.a(decNumber.o)
 .debug_aranges
                0x000000d0       0x20 windows32_realbuild/obj\libdecNum34s.a(decimal128.o)
 .debug_aranges
                0x000000f0       0x20 windows32_realbuild/obj\libdecNum34s.a(decimal64.o)

.debug_loc      0x00000000    0x23b0f
 .debug_loc     0x00000000    0x1e330 C:\DOCUME~1\sanjeev\LOCALS~1\Temp\ccubq5cn.o
 .debug_loc     0x0001e330       0x5b windows32_realbuild/obj\libdecNum34s.a(decContext.o)
 .debug_loc     0x0001e38b     0x4ce1 windows32_realbuild/obj\libdecNum34s.a(decNumber.o)
 .debug_loc     0x0002306c      0x31c windows32_realbuild/obj\libdecNum34s.a(decimal128.o)
 .debug_loc     0x00023388      0x787 windows32_realbuild/obj\libdecNum34s.a(decimal64.o)

.debug_ranges   0x00000000     0x1aa8
 .debug_ranges  0x00000000     0x16e0 C:\DOCUME~1\sanjeev\LOCALS~1\Temp\ccubq5cn.o
 .debug_ranges  0x000016e0      0x3a8 windows32_realbuild/obj\libdecNum34s.a(decNumber.o)
 .debug_ranges  0x00001a88       0x20 windows32_realbuild/obj\libdecNum34s.a(decimal64.o)

.debug_str      0x00000000     0x75b3
 .debug_str     0x00000000     0x6ad5 C:\DOCUME~1\sanjeev\LOCALS~1\Temp\ccubq5cn.o
                               0x708d (size before relaxing)
 .debug_str     0x00006ad5       0x45 windows32_realbuild/obj\libconsts.a(const_NaN.o)
                                0x12f (size before relaxing)
 .debug_str     0x00006b1a        0xc windows32_realbuild/obj\libconsts.a(const_inf.o)
                                0x12f (size before relaxing)
 .debug_str     0x00006b26        0xd windows32_realbuild/obj\libconsts.a(const__inf.o)
                                0x131 (size before relaxing)
 .debug_str     0x00006b33        0xb windows32_realbuild/obj\libconsts.a(const__1.o)
                                0x12d (size before relaxing)
 .debug_str     0x00006b3e        0xb windows32_realbuild/obj\libconsts.a(const__0.o)
                                0x12d (size before relaxing)
 .debug_str     0x00006b49        0xa windows32_realbuild/obj\libconsts.a(const_0.o)
                                0x12b (size before relaxing)
 .debug_str     0x00006b53        0xa windows32_realbuild/obj\libconsts.a(const_1.o)
                                0x12b (size before relaxing)
 .debug_str     0x00006b5d        0xa windows32_realbuild/obj\libconsts.a(const_2.o)
                                0x12b (size before relaxing)
 .debug_str     0x00006b67        0xa windows32_realbuild/obj\libconsts.a(const_3.o)
                                0x12b (size before relaxing)
 .debug_str     0x00006b71        0xa windows32_realbuild/obj\libconsts.a(const_5.o)
                                0x12b (size before relaxing)
 .debug_str     0x00006b7b        0xb windows32_realbuild/obj\libconsts.a(const_10.o)
                                0x12d (size before relaxing)
 .debug_str     0x00006b86        0xb windows32_realbuild/obj\libconsts.a(const_20.o)
                                0x12d (size before relaxing)
 .debug_str     0x00006b91        0xb windows32_realbuild/obj\libconsts.a(const_21.o)
                                0x12d (size before relaxing)
 .debug_str     0x00006b9c        0xb windows32_realbuild/obj\libconsts.a(const_32.o)
                                0x12d (size before relaxing)
 .debug_str     0x00006ba7        0xb windows32_realbuild/obj\libconsts.a(const_60.o)
                                0x12d (size before relaxing)
 .debug_str     0x00006bb2        0xb windows32_realbuild/obj\libconsts.a(const_90.o)
                                0x12d (size before relaxing)
 .debug_str     0x00006bbd        0xc windows32_realbuild/obj\libconsts.a(const_100.o)
                                0x12f (size before relaxing)
 .debug_str     0x00006bc9        0xc windows32_realbuild/obj\libconsts.a(const_256.o)
                                0x12f (size before relaxing)
 .debug_str     0x00006bd5        0xc windows32_realbuild/obj\libconsts.a(const_360.o)
                                0x12f (size before relaxing)
 .debug_str     0x00006be1        0xc windows32_realbuild/obj\libconsts.a(const_400.o)
                                0x12f (size before relaxing)
 .debug_str     0x00006bed        0xd windows32_realbuild/obj\libconsts.a(const_9000.o)
                                0x131 (size before relaxing)
 .debug_str     0x00006bfa        0xe windows32_realbuild/obj\libconsts.a(const_36000.o)
                                0x133 (size before relaxing)
 .debug_str     0x00006c08        0xf windows32_realbuild/obj\libconsts.a(const_100000.o)
                                0x135 (size before relaxing)
 .debug_str     0x00006c17        0xe windows32_realbuild/obj\libconsts.a(const_1e_32.o)
                                0x133 (size before relaxing)
 .debug_str     0x00006c25        0xe windows32_realbuild/obj\libconsts.a(const_1e_37.o)
                                0x133 (size before relaxing)
 .debug_str     0x00006c33        0xe windows32_realbuild/obj\libconsts.a(const_1e_24.o)
                                0x133 (size before relaxing)
 .debug_str     0x00006c41        0xe windows32_realbuild/obj\libconsts.a(const_1e_14.o)
                                0x133 (size before relaxing)
 .debug_str     0x00006c4f       0x12 windows32_realbuild/obj\libconsts.a(const_0_0000005.o)
                                0x13b (size before relaxing)
 .debug_str     0x00006c61        0xf windows32_realbuild/obj\libconsts.a(const_0_0001.o)
                                0x135 (size before relaxing)
 .debug_str     0x00006c70        0xc windows32_realbuild/obj\libconsts.a(const_0_1.o)
                                0x12f (size before relaxing)
 .debug_str     0x00006c7c        0xd windows32_realbuild/obj\libconsts.a(const_0_05.o)
                                0x131 (size before relaxing)
 .debug_str     0x00006c89        0xc windows32_realbuild/obj\libconsts.a(const_0_4.o)
                                0x12f (size before relaxing)
 .debug_str     0x00006c95        0xc windows32_realbuild/obj\libconsts.a(const_0_5.o)
                                0x12f (size before relaxing)
 .debug_str     0x00006ca1        0xc windows32_realbuild/obj\libconsts.a(const_0_6.o)
                                0x12f (size before relaxing)
 .debug_str     0x00006cad        0xd windows32_realbuild/obj\libconsts.a(const_0_75.o)
                                0x131 (size before relaxing)
 .debug_str     0x00006cba        0xc windows32_realbuild/obj\libconsts.a(const_0_9.o)
                                0x12f (size before relaxing)
 .debug_str     0x00006cc6        0xe windows32_realbuild/obj\libconsts.a(const_1on60.o)
                                0x133 (size before relaxing)
 .debug_str     0x00006cd4        0xd windows32_realbuild/obj\libconsts.a(const_9on5.o)
                                0x131 (size before relaxing)
 .debug_str     0x00006ce1       0x11 windows32_realbuild/obj\libconsts.a(const_root2on2.o)
                                0x139 (size before relaxing)
 .debug_str     0x00006cf2        0xb windows32_realbuild/obj\libconsts.a(const_PI.o)
                                0x12d (size before relaxing)
 .debug_str     0x00006cfd        0xc windows32_realbuild/obj\libconsts.a(const_2PI.o)
                                0x12f (size before relaxing)
 .debug_str     0x00006d09        0xe windows32_realbuild/obj\libconsts.a(const_PIon2.o)
                                0x133 (size before relaxing)
 .debug_str     0x00006d17       0x10 windows32_realbuild/obj\libconsts.a(const_PIon180.o)
                                0x137 (size before relaxing)
 .debug_str     0x00006d27       0x10 windows32_realbuild/obj\libconsts.a(const_PIon200.o)
                                0x137 (size before relaxing)
 .debug_str     0x00006d37        0xc windows32_realbuild/obj\libconsts.a(const_ln2.o)
                                0x12f (size before relaxing)
 .debug_str     0x00006d43        0xd windows32_realbuild/obj\libconsts.a(const_ln10.o)
                                0x131 (size before relaxing)
 .debug_str     0x00006d50        0xf windows32_realbuild/obj\libconsts.a(const_2pow64.o)
                                0x135 (size before relaxing)
 .debug_str     0x00006d5f       0x10 windows32_realbuild/obj\libconsts.a(const_randfac.o)
                                0x137 (size before relaxing)
 .debug_str     0x00006d6f        0xf windows32_realbuild/obj\libconsts.a(const_gammaR.o)
                                0x135 (size before relaxing)
 .debug_str     0x00006d7e       0x11 windows32_realbuild/obj\libconsts.a(const_gammaC00.o)
                                0x139 (size before relaxing)
 .debug_str     0x00006d8f       0x11 windows32_realbuild/obj\libconsts.a(const_gammaC01.o)
                                0x139 (size before relaxing)
 .debug_str     0x00006da0       0x11 windows32_realbuild/obj\libconsts.a(const_gammaC02.o)
                                0x139 (size before relaxing)
 .debug_str     0x00006db1       0x11 windows32_realbuild/obj\libconsts.a(const_gammaC03.o)
                                0x139 (size before relaxing)
 .debug_str     0x00006dc2       0x11 windows32_realbuild/obj\libconsts.a(const_gammaC04.o)
                                0x139 (size before relaxing)
 .debug_str     0x00006dd3       0x11 windows32_realbuild/obj\libconsts.a(const_gammaC05.o)
                                0x139 (size before relaxing)
 .debug_str     0x00006de4       0x11 windows32_realbuild/obj\libconsts.a(const_gammaC06.o)
                                0x139 (size before relaxing)
 .debug_str     0x00006df5       0x11 windows32_realbuild/obj\libconsts.a(const_gammaC07.o)
                                0x139 (size before relaxing)
 .debug_str     0x00006e06       0x11 windows32_realbuild/obj\libconsts.a(const_gammaC08.o)
                                0x139 (size before relaxing)
 .debug_str     0x00006e17       0x11 windows32_realbuild/obj\libconsts.a(const_gammaC09.o)
                                0x139 (size before relaxing)
 .debug_str     0x00006e28       0x11 windows32_realbuild/obj\libconsts.a(const_gammaC10.o)
                                0x139 (size before relaxing)
 .debug_str     0x00006e39       0x11 windows32_realbuild/obj\libconsts.a(const_gammaC11.o)
                                0x139 (size before relaxing)
 .debug_str     0x00006e4a       0x11 windows32_realbuild/obj\libconsts.a(const_gammaC12.o)
                                0x139 (size before relaxing)
 .debug_str     0x00006e5b       0x11 windows32_realbuild/obj\libconsts.a(const_gammaC13.o)
                                0x139 (size before relaxing)
 .debug_str     0x00006e6c       0x11 windows32_realbuild/obj\libconsts.a(const_gammaC14.o)
                                0x139 (size before relaxing)
 .debug_str     0x00006e7d       0x11 windows32_realbuild/obj\libconsts.a(const_gammaC15.o)
                                0x139 (size before relaxing)
 .debug_str     0x00006e8e       0x11 windows32_realbuild/obj\libconsts.a(const_gammaC16.o)
                                0x139 (size before relaxing)
 .debug_str     0x00006e9f       0x11 windows32_realbuild/obj\libconsts.a(const_gammaC17.o)
                                0x139 (size before relaxing)
 .debug_str     0x00006eb0       0x11 windows32_realbuild/obj\libconsts.a(const_gammaC18.o)
                                0x139 (size before relaxing)
 .debug_str     0x00006ec1       0x11 windows32_realbuild/obj\libconsts.a(const_gammaC19.o)
                                0x139 (size before relaxing)
 .debug_str     0x00006ed2       0x11 windows32_realbuild/obj\libconsts.a(const_gammaC20.o)
                                0x139 (size before relaxing)
 .debug_str     0x00006ee3       0x11 windows32_realbuild/obj\libconsts.a(const_gammaC21.o)
                                0x139 (size before relaxing)
 .debug_str     0x00006ef4       0x63 windows32_realbuild/obj\libdecNum34s.a(decContext.o)
                                0x1f1 (size before relaxing)
 .debug_str     0x00006f57      0x57b windows32_realbuild/obj\libdecNum34s.a(decNumber.o)
                                0x815 (size before relaxing)
 .debug_str     0x000074d2       0x66 windows32_realbuild/obj\libdecNum34s.a(decimal128.o)
                                0x258 (size before relaxing)
 .debug_str     0x00007538       0x7b windows32_realbuild/obj\libdecNum34s.a(decimal64.o)
                                0x2e1 (size before relaxing)

.debug_frame    0x00000000     0x5498
 .debug_frame   0x00000000     0x4c90 C:\DOCUME~1\sanjeev\LOCALS~1\Temp\ccubq5cn.o
 .debug_frame   0x00004c90       0x20 c:/program files/gnu tools arm embedded/4.6 2012q4/bin/../lib/gcc/arm-none-eabi/4.6.2/thumb\libgcc.a(_udivsi3.o)
 .debug_frame   0x00004cb0       0x20 c:/program files/gnu tools arm embedded/4.6 2012q4/bin/../lib/gcc/arm-none-eabi/4.6.2/thumb\libgcc.a(_divsi3.o)
 .debug_frame   0x00004cd0       0x30 c:/program files/gnu tools arm embedded/4.6 2012q4/bin/../lib/gcc/arm-none-eabi/4.6.2/thumb\libgcc.a(_muldi3.o)
 .debug_frame   0x00004d00       0x20 c:/program files/gnu tools arm embedded/4.6 2012q4/bin/../lib/gcc/arm-none-eabi/4.6.2/thumb\libgcc.a(_paritysi2.o)
 .debug_frame   0x00004d20       0x50 c:/program files/gnu tools arm embedded/4.6 2012q4/bin/../lib/gcc/arm-none-eabi/4.6.2/thumb\libgcc.a(bpabi.o)
 .debug_frame   0x00004d70       0x3c c:/program files/gnu tools arm embedded/4.6 2012q4/bin/../lib/gcc/arm-none-eabi/4.6.2/thumb\libgcc.a(_divdi3.o)
 .debug_frame   0x00004dac       0x3c c:/program files/gnu tools arm embedded/4.6 2012q4/bin/../lib/gcc/arm-none-eabi/4.6.2/thumb\libgcc.a(_udivdi3.o)
 .debug_frame   0x00004de8       0x38 windows32_realbuild/obj\libdecNum34s.a(decContext.o)
 .debug_frame   0x00004e20      0x580 windows32_realbuild/obj\libdecNum34s.a(decNumber.o)
 .debug_frame   0x000053a0       0x4c windows32_realbuild/obj\libdecNum34s.a(decimal128.o)
 .debug_frame   0x000053ec       0xac windows32_realbuild/obj\libdecNum34s.a(decimal64.o)
